(lp0
(I-63
I41
tp1
a(I-63
I42
tp2
a(I-62
I41
tp3
a(I-62
I42
tp4
a(I-61
I41
tp5
a(I-61
I42
tp6
a(I-60
I41
tp7
a(I-60
I42
tp8
a(I-59
I41
tp9
a(I-59
I42
tp10
a(I-58
I41
tp11
a(I-58
I42
tp12
a(I-57
I41
tp13
a(I-57
I42
tp14
a(I-56
I41
tp15
a(I-56
I42
tp16
a(I-40
I36
tp17
a(I-40
I37
tp18
a(I-39
I36
tp19
a(I-39
I37
tp20
a(I-38
I36
tp21
a(I-38
I37
tp22
a(I-37
I36
tp23
a(I-37
I37
tp24
a(I-36
I36
tp25
a(I-36
I37
tp26
a(I-35
I36
tp27
a(I-35
I37
tp28
a(I-34
I36
tp29
a(I-34
I37
tp30
a(I-33
I36
tp31
a(I-33
I37
tp32
a(I-32
I36
tp33
a(I-32
I37
tp34
a(I-31
I36
tp35
a(I-31
I37
tp36
a(I-30
I36
tp37
a(I-30
I37
tp38
a(I-29
I36
tp39
a(I-29
I37
tp40
a(I-28
I36
tp41
a(I-28
I37
tp42
a(I-28
I9
tp43
a(I-28
I10
tp44
a(I-28
I11
tp45
a(I-28
I12
tp46
a(I-28
I13
tp47
a(I-28
I14
tp48
a(I-28
I15
tp49
a(I-28
I16
tp50
a(I-28
I17
tp51
a(I-28
I18
tp52
a(I-28
I19
tp53
a(I-28
I20
tp54
a(I-28
I21
tp55
a(I-28
I22
tp56
a(I-28
I23
tp57
a(I-28
I24
tp58
a(I-28
I25
tp59
a(I-28
I26
tp60
a(I-28
I27
tp61
a(I-28
I28
tp62
a(I-28
I29
tp63
a(I-28
I30
tp64
a(I-28
I31
tp65
a(I-28
I32
tp66
a(I-28
I33
tp67
a(I-28
I34
tp68
a(I-28
I35
tp69
a(I-28
I36
tp70
a(I-28
I37
tp71
a(I-39
I9
tp72
a(I-39
I10
tp73
a(I-38
I9
tp74
a(I-38
I10
tp75
a(I-37
I9
tp76
a(I-37
I10
tp77
a(I-36
I9
tp78
a(I-36
I10
tp79
a(I-35
I9
tp80
a(I-35
I10
tp81
a(I-34
I9
tp82
a(I-34
I10
tp83
a(I-33
I9
tp84
a(I-33
I10
tp85
a(I-32
I9
tp86
a(I-32
I10
tp87
a(I-31
I9
tp88
a(I-31
I10
tp89
a(I-30
I9
tp90
a(I-30
I10
tp91
a(I-29
I9
tp92
a(I-29
I10
tp93
a(I-28
I9
tp94
a(I-28
I10
tp95
a(I-40
I9
tp96
a(I-40
I10
tp97
a(I-40
I11
tp98
a(I-40
I12
tp99
a(I-40
I13
tp100
a(I-40
I14
tp101
a(I-40
I15
tp102
a(I-40
I16
tp103
a(I-40
I17
tp104
a(I-40
I18
tp105
a(I-40
I19
tp106
a(I-40
I20
tp107
a(I-40
I21
tp108
a(I-40
I22
tp109
a(I-40
I23
tp110
a(I-40
I24
tp111
a(I-40
I25
tp112
a(I-40
I26
tp113
a(I-40
I27
tp114
a(I-40
I28
tp115
a(I-40
I29
tp116
a(I-40
I30
tp117
a(I-40
I31
tp118
a(I-40
I32
tp119
a(I-40
I33
tp120
a(I-40
I34
tp121
a(I-40
I35
tp122
a(I-40
I36
tp123
a(I-40
I37
tp124
a(I-24
I23
tp125
a(I-24
I24
tp126
a(I-24
I25
tp127
a(I-24
I26
tp128
a(I-24
I27
tp129
a(I-24
I28
tp130
a(I-24
I29
tp131
a(I-24
I30
tp132
a(I-24
I31
tp133
a(I-24
I32
tp134
a(I-24
I33
tp135
a(I-24
I34
tp136
a(I-24
I35
tp137
a(I-24
I36
tp138
a(I-24
I37
tp139
a(I-24
I23
tp140
a(I-24
I24
tp141
a(I-23
I23
tp142
a(I-23
I24
tp143
a(I-22
I23
tp144
a(I-22
I24
tp145
a(I-21
I23
tp146
a(I-21
I24
tp147
a(I-20
I23
tp148
a(I-20
I24
tp149
a(I-19
I23
tp150
a(I-19
I24
tp151
a(I-18
I23
tp152
a(I-18
I24
tp153
a(I-17
I23
tp154
a(I-17
I24
tp155
a(I-16
I23
tp156
a(I-16
I24
tp157
a(I-15
I23
tp158
a(I-15
I24
tp159
a(I-14
I23
tp160
a(I-14
I24
tp161
a(I-13
I23
tp162
a(I-13
I24
tp163
a(I-13
I10
tp164
a(I-13
I11
tp165
a(I-13
I12
tp166
a(I-13
I13
tp167
a(I-13
I14
tp168
a(I-13
I15
tp169
a(I-13
I16
tp170
a(I-13
I17
tp171
a(I-13
I18
tp172
a(I-13
I19
tp173
a(I-13
I20
tp174
a(I-13
I21
tp175
a(I-13
I22
tp176
a(I-13
I23
tp177
a(I-13
I24
tp178
a(I-24
I10
tp179
a(I-24
I11
tp180
a(I-23
I10
tp181
a(I-23
I11
tp182
a(I-22
I10
tp183
a(I-22
I11
tp184
a(I-21
I10
tp185
a(I-21
I11
tp186
a(I-20
I10
tp187
a(I-20
I11
tp188
a(I-19
I10
tp189
a(I-19
I11
tp190
a(I-18
I10
tp191
a(I-18
I11
tp192
a(I-17
I10
tp193
a(I-17
I11
tp194
a(I-16
I10
tp195
a(I-16
I11
tp196
a(I-15
I10
tp197
a(I-15
I11
tp198
a(I-14
I10
tp199
a(I-14
I11
tp200
a(I-13
I10
tp201
a(I-13
I11
tp202
a(I-12
I10
tp203
a(I-12
I11
tp204
a(I-11
I10
tp205
a(I-11
I11
tp206
a(I-84
I0
tp207
a(I-84
I1
tp208
a(I-84
I2
tp209
a(I-84
I3
tp210
a(I-84
I4
tp211
a(I-84
I5
tp212
a(I-84
I6
tp213
a(I-84
I7
tp214
a(I-84
I8
tp215
a(I-84
I9
tp216
a(I-84
I10
tp217
a(I-84
I11
tp218
a(I-83
I0
tp219
a(I-83
I1
tp220
a(I-83
I2
tp221
a(I-83
I3
tp222
a(I-83
I4
tp223
a(I-83
I5
tp224
a(I-83
I6
tp225
a(I-83
I7
tp226
a(I-83
I8
tp227
a(I-83
I9
tp228
a(I-83
I10
tp229
a(I-83
I11
tp230
a(I-82
I0
tp231
a(I-82
I1
tp232
a(I-82
I2
tp233
a(I-82
I3
tp234
a(I-82
I4
tp235
a(I-82
I5
tp236
a(I-82
I6
tp237
a(I-82
I7
tp238
a(I-82
I8
tp239
a(I-82
I9
tp240
a(I-82
I10
tp241
a(I-82
I11
tp242
a(I-81
I0
tp243
a(I-81
I1
tp244
a(I-81
I2
tp245
a(I-81
I3
tp246
a(I-81
I4
tp247
a(I-81
I5
tp248
a(I-81
I6
tp249
a(I-81
I7
tp250
a(I-81
I8
tp251
a(I-81
I9
tp252
a(I-81
I10
tp253
a(I-81
I11
tp254
a(I-80
I0
tp255
a(I-80
I1
tp256
a(I-80
I2
tp257
a(I-80
I3
tp258
a(I-80
I4
tp259
a(I-80
I5
tp260
a(I-80
I6
tp261
a(I-80
I7
tp262
a(I-80
I8
tp263
a(I-80
I9
tp264
a(I-80
I10
tp265
a(I-80
I11
tp266
a(I-79
I0
tp267
a(I-79
I1
tp268
a(I-79
I2
tp269
a(I-79
I3
tp270
a(I-79
I4
tp271
a(I-79
I5
tp272
a(I-79
I6
tp273
a(I-79
I7
tp274
a(I-79
I8
tp275
a(I-79
I9
tp276
a(I-79
I10
tp277
a(I-79
I11
tp278
a(I-78
I0
tp279
a(I-78
I1
tp280
a(I-78
I2
tp281
a(I-78
I3
tp282
a(I-78
I4
tp283
a(I-78
I5
tp284
a(I-78
I6
tp285
a(I-78
I7
tp286
a(I-78
I8
tp287
a(I-78
I9
tp288
a(I-78
I10
tp289
a(I-78
I11
tp290
a(I-77
I0
tp291
a(I-77
I1
tp292
a(I-77
I2
tp293
a(I-77
I3
tp294
a(I-77
I4
tp295
a(I-77
I5
tp296
a(I-77
I6
tp297
a(I-77
I7
tp298
a(I-77
I8
tp299
a(I-77
I9
tp300
a(I-77
I10
tp301
a(I-77
I11
tp302
a(I-76
I0
tp303
a(I-76
I1
tp304
a(I-76
I2
tp305
a(I-76
I3
tp306
a(I-76
I4
tp307
a(I-76
I5
tp308
a(I-76
I6
tp309
a(I-76
I7
tp310
a(I-76
I8
tp311
a(I-76
I9
tp312
a(I-76
I10
tp313
a(I-76
I11
tp314
a(I-75
I0
tp315
a(I-75
I1
tp316
a(I-75
I2
tp317
a(I-75
I3
tp318
a(I-75
I4
tp319
a(I-75
I5
tp320
a(I-75
I6
tp321
a(I-75
I7
tp322
a(I-75
I8
tp323
a(I-75
I9
tp324
a(I-75
I10
tp325
a(I-75
I11
tp326
a(I-74
I0
tp327
a(I-74
I1
tp328
a(I-74
I2
tp329
a(I-74
I3
tp330
a(I-74
I4
tp331
a(I-74
I5
tp332
a(I-74
I6
tp333
a(I-74
I7
tp334
a(I-74
I8
tp335
a(I-74
I9
tp336
a(I-74
I10
tp337
a(I-74
I11
tp338
a(I-73
I0
tp339
a(I-73
I1
tp340
a(I-73
I2
tp341
a(I-73
I3
tp342
a(I-73
I4
tp343
a(I-73
I5
tp344
a(I-73
I6
tp345
a(I-73
I7
tp346
a(I-73
I8
tp347
a(I-73
I9
tp348
a(I-73
I10
tp349
a(I-73
I11
tp350
a(I-72
I0
tp351
a(I-72
I1
tp352
a(I-72
I2
tp353
a(I-72
I3
tp354
a(I-72
I4
tp355
a(I-72
I5
tp356
a(I-72
I6
tp357
a(I-72
I7
tp358
a(I-72
I8
tp359
a(I-72
I9
tp360
a(I-72
I10
tp361
a(I-72
I11
tp362
a(I-71
I0
tp363
a(I-71
I1
tp364
a(I-71
I2
tp365
a(I-71
I3
tp366
a(I-71
I4
tp367
a(I-71
I5
tp368
a(I-71
I6
tp369
a(I-71
I7
tp370
a(I-71
I8
tp371
a(I-71
I9
tp372
a(I-71
I10
tp373
a(I-71
I11
tp374
a(I-70
I0
tp375
a(I-70
I1
tp376
a(I-70
I2
tp377
a(I-70
I3
tp378
a(I-70
I4
tp379
a(I-70
I5
tp380
a(I-70
I6
tp381
a(I-70
I7
tp382
a(I-70
I8
tp383
a(I-70
I9
tp384
a(I-70
I10
tp385
a(I-70
I11
tp386
a(I-69
I0
tp387
a(I-69
I1
tp388
a(I-69
I2
tp389
a(I-69
I3
tp390
a(I-69
I4
tp391
a(I-69
I5
tp392
a(I-69
I6
tp393
a(I-69
I7
tp394
a(I-69
I8
tp395
a(I-69
I9
tp396
a(I-69
I10
tp397
a(I-69
I11
tp398
a(I-68
I0
tp399
a(I-68
I1
tp400
a(I-68
I2
tp401
a(I-68
I3
tp402
a(I-68
I4
tp403
a(I-68
I5
tp404
a(I-68
I6
tp405
a(I-68
I7
tp406
a(I-68
I8
tp407
a(I-68
I9
tp408
a(I-68
I10
tp409
a(I-68
I11
tp410
a(I-67
I0
tp411
a(I-67
I1
tp412
a(I-67
I2
tp413
a(I-67
I3
tp414
a(I-67
I4
tp415
a(I-67
I5
tp416
a(I-67
I6
tp417
a(I-67
I7
tp418
a(I-67
I8
tp419
a(I-67
I9
tp420
a(I-67
I10
tp421
a(I-67
I11
tp422
a(I-66
I0
tp423
a(I-66
I1
tp424
a(I-66
I2
tp425
a(I-66
I3
tp426
a(I-66
I4
tp427
a(I-66
I5
tp428
a(I-66
I6
tp429
a(I-66
I7
tp430
a(I-66
I8
tp431
a(I-66
I9
tp432
a(I-66
I10
tp433
a(I-66
I11
tp434
a(I-65
I0
tp435
a(I-65
I1
tp436
a(I-65
I2
tp437
a(I-65
I3
tp438
a(I-65
I4
tp439
a(I-65
I5
tp440
a(I-65
I6
tp441
a(I-65
I7
tp442
a(I-65
I8
tp443
a(I-65
I9
tp444
a(I-65
I10
tp445
a(I-65
I11
tp446
a(I-64
I0
tp447
a(I-64
I1
tp448
a(I-64
I2
tp449
a(I-64
I3
tp450
a(I-64
I4
tp451
a(I-64
I5
tp452
a(I-64
I6
tp453
a(I-64
I7
tp454
a(I-64
I8
tp455
a(I-64
I9
tp456
a(I-64
I10
tp457
a(I-64
I11
tp458
a(I-63
I0
tp459
a(I-63
I1
tp460
a(I-63
I2
tp461
a(I-63
I3
tp462
a(I-63
I4
tp463
a(I-63
I5
tp464
a(I-63
I6
tp465
a(I-63
I7
tp466
a(I-63
I8
tp467
a(I-63
I9
tp468
a(I-63
I10
tp469
a(I-63
I11
tp470
a(I-62
I0
tp471
a(I-62
I1
tp472
a(I-62
I2
tp473
a(I-62
I3
tp474
a(I-62
I4
tp475
a(I-62
I5
tp476
a(I-62
I6
tp477
a(I-62
I7
tp478
a(I-62
I8
tp479
a(I-62
I9
tp480
a(I-62
I10
tp481
a(I-62
I11
tp482
a(I-61
I0
tp483
a(I-61
I1
tp484
a(I-61
I2
tp485
a(I-61
I3
tp486
a(I-61
I4
tp487
a(I-61
I5
tp488
a(I-61
I6
tp489
a(I-61
I7
tp490
a(I-61
I8
tp491
a(I-61
I9
tp492
a(I-61
I10
tp493
a(I-61
I11
tp494
a(I-60
I0
tp495
a(I-60
I1
tp496
a(I-60
I2
tp497
a(I-60
I3
tp498
a(I-60
I4
tp499
a(I-60
I5
tp500
a(I-60
I6
tp501
a(I-60
I7
tp502
a(I-60
I8
tp503
a(I-60
I9
tp504
a(I-60
I10
tp505
a(I-60
I11
tp506
a(I-59
I0
tp507
a(I-59
I1
tp508
a(I-59
I2
tp509
a(I-59
I3
tp510
a(I-59
I4
tp511
a(I-59
I5
tp512
a(I-59
I6
tp513
a(I-59
I7
tp514
a(I-59
I8
tp515
a(I-59
I9
tp516
a(I-59
I10
tp517
a(I-59
I11
tp518
a(I-58
I0
tp519
a(I-58
I1
tp520
a(I-58
I2
tp521
a(I-58
I3
tp522
a(I-58
I4
tp523
a(I-58
I5
tp524
a(I-58
I6
tp525
a(I-58
I7
tp526
a(I-58
I8
tp527
a(I-58
I9
tp528
a(I-58
I10
tp529
a(I-58
I11
tp530
a(I-57
I0
tp531
a(I-57
I1
tp532
a(I-57
I2
tp533
a(I-57
I3
tp534
a(I-57
I4
tp535
a(I-57
I5
tp536
a(I-57
I6
tp537
a(I-57
I7
tp538
a(I-57
I8
tp539
a(I-57
I9
tp540
a(I-57
I10
tp541
a(I-57
I11
tp542
a(I-56
I0
tp543
a(I-56
I1
tp544
a(I-56
I2
tp545
a(I-56
I3
tp546
a(I-56
I4
tp547
a(I-56
I5
tp548
a(I-56
I6
tp549
a(I-56
I7
tp550
a(I-56
I8
tp551
a(I-56
I9
tp552
a(I-56
I10
tp553
a(I-56
I11
tp554
a(I-55
I0
tp555
a(I-55
I1
tp556
a(I-55
I2
tp557
a(I-55
I3
tp558
a(I-55
I4
tp559
a(I-55
I5
tp560
a(I-55
I6
tp561
a(I-55
I7
tp562
a(I-55
I8
tp563
a(I-55
I9
tp564
a(I-55
I10
tp565
a(I-55
I11
tp566
a(I-54
I0
tp567
a(I-54
I1
tp568
a(I-54
I2
tp569
a(I-54
I3
tp570
a(I-54
I4
tp571
a(I-54
I5
tp572
a(I-54
I6
tp573
a(I-54
I7
tp574
a(I-54
I8
tp575
a(I-54
I9
tp576
a(I-54
I10
tp577
a(I-54
I11
tp578
a(I-53
I0
tp579
a(I-53
I1
tp580
a(I-53
I2
tp581
a(I-53
I3
tp582
a(I-53
I4
tp583
a(I-53
I5
tp584
a(I-53
I6
tp585
a(I-53
I7
tp586
a(I-53
I8
tp587
a(I-53
I9
tp588
a(I-53
I10
tp589
a(I-53
I11
tp590
a(I-52
I0
tp591
a(I-52
I1
tp592
a(I-52
I2
tp593
a(I-52
I3
tp594
a(I-52
I4
tp595
a(I-52
I5
tp596
a(I-52
I6
tp597
a(I-52
I7
tp598
a(I-52
I8
tp599
a(I-52
I9
tp600
a(I-52
I10
tp601
a(I-52
I11
tp602
a(I-51
I0
tp603
a(I-51
I1
tp604
a(I-51
I2
tp605
a(I-51
I3
tp606
a(I-51
I4
tp607
a(I-51
I5
tp608
a(I-51
I6
tp609
a(I-51
I7
tp610
a(I-51
I8
tp611
a(I-51
I9
tp612
a(I-51
I10
tp613
a(I-51
I11
tp614
a(I-50
I0
tp615
a(I-50
I1
tp616
a(I-50
I2
tp617
a(I-50
I3
tp618
a(I-50
I4
tp619
a(I-50
I5
tp620
a(I-50
I6
tp621
a(I-50
I7
tp622
a(I-50
I8
tp623
a(I-50
I9
tp624
a(I-50
I10
tp625
a(I-50
I11
tp626
a(I-49
I0
tp627
a(I-49
I1
tp628
a(I-49
I2
tp629
a(I-49
I3
tp630
a(I-49
I4
tp631
a(I-49
I5
tp632
a(I-49
I6
tp633
a(I-49
I7
tp634
a(I-49
I8
tp635
a(I-49
I9
tp636
a(I-49
I10
tp637
a(I-49
I11
tp638
a(I-48
I0
tp639
a(I-48
I1
tp640
a(I-48
I2
tp641
a(I-48
I3
tp642
a(I-48
I4
tp643
a(I-48
I5
tp644
a(I-48
I6
tp645
a(I-48
I7
tp646
a(I-48
I8
tp647
a(I-48
I9
tp648
a(I-48
I10
tp649
a(I-48
I11
tp650
a(I-47
I0
tp651
a(I-47
I1
tp652
a(I-47
I2
tp653
a(I-47
I3
tp654
a(I-47
I4
tp655
a(I-47
I5
tp656
a(I-47
I6
tp657
a(I-47
I7
tp658
a(I-47
I8
tp659
a(I-47
I9
tp660
a(I-47
I10
tp661
a(I-47
I11
tp662
a(I-46
I0
tp663
a(I-46
I1
tp664
a(I-46
I2
tp665
a(I-46
I3
tp666
a(I-46
I4
tp667
a(I-46
I5
tp668
a(I-46
I6
tp669
a(I-46
I7
tp670
a(I-46
I8
tp671
a(I-46
I9
tp672
a(I-46
I10
tp673
a(I-46
I11
tp674
a(I-45
I0
tp675
a(I-45
I1
tp676
a(I-45
I2
tp677
a(I-45
I3
tp678
a(I-45
I4
tp679
a(I-45
I5
tp680
a(I-45
I6
tp681
a(I-45
I7
tp682
a(I-45
I8
tp683
a(I-45
I9
tp684
a(I-45
I10
tp685
a(I-45
I11
tp686
a(I-44
I0
tp687
a(I-44
I1
tp688
a(I-44
I2
tp689
a(I-44
I3
tp690
a(I-44
I4
tp691
a(I-44
I5
tp692
a(I-44
I6
tp693
a(I-44
I7
tp694
a(I-44
I8
tp695
a(I-44
I9
tp696
a(I-44
I10
tp697
a(I-44
I11
tp698
a(I-43
I0
tp699
a(I-43
I1
tp700
a(I-43
I2
tp701
a(I-43
I3
tp702
a(I-43
I4
tp703
a(I-43
I5
tp704
a(I-43
I6
tp705
a(I-43
I7
tp706
a(I-43
I8
tp707
a(I-43
I9
tp708
a(I-43
I10
tp709
a(I-43
I11
tp710
a(I-42
I0
tp711
a(I-42
I1
tp712
a(I-42
I2
tp713
a(I-42
I3
tp714
a(I-42
I4
tp715
a(I-42
I5
tp716
a(I-42
I6
tp717
a(I-42
I7
tp718
a(I-42
I8
tp719
a(I-42
I9
tp720
a(I-42
I10
tp721
a(I-42
I11
tp722
a(I-41
I0
tp723
a(I-41
I1
tp724
a(I-41
I2
tp725
a(I-41
I3
tp726
a(I-41
I4
tp727
a(I-41
I5
tp728
a(I-41
I6
tp729
a(I-41
I7
tp730
a(I-41
I8
tp731
a(I-41
I9
tp732
a(I-41
I10
tp733
a(I-41
I11
tp734
a(I-40
I0
tp735
a(I-40
I1
tp736
a(I-40
I2
tp737
a(I-40
I3
tp738
a(I-40
I4
tp739
a(I-40
I5
tp740
a(I-40
I6
tp741
a(I-40
I7
tp742
a(I-40
I8
tp743
a(I-40
I9
tp744
a(I-40
I10
tp745
a(I-40
I11
tp746
a(I-39
I0
tp747
a(I-39
I1
tp748
a(I-39
I2
tp749
a(I-39
I3
tp750
a(I-39
I4
tp751
a(I-39
I5
tp752
a(I-39
I6
tp753
a(I-39
I7
tp754
a(I-39
I8
tp755
a(I-39
I9
tp756
a(I-39
I10
tp757
a(I-39
I11
tp758
a(I-38
I0
tp759
a(I-38
I1
tp760
a(I-38
I2
tp761
a(I-38
I3
tp762
a(I-38
I4
tp763
a(I-38
I5
tp764
a(I-38
I6
tp765
a(I-38
I7
tp766
a(I-38
I8
tp767
a(I-38
I9
tp768
a(I-38
I10
tp769
a(I-38
I11
tp770
a(I-37
I0
tp771
a(I-37
I1
tp772
a(I-37
I2
tp773
a(I-37
I3
tp774
a(I-37
I4
tp775
a(I-37
I5
tp776
a(I-37
I6
tp777
a(I-37
I7
tp778
a(I-37
I8
tp779
a(I-37
I9
tp780
a(I-37
I10
tp781
a(I-37
I11
tp782
a(I-36
I0
tp783
a(I-36
I1
tp784
a(I-36
I2
tp785
a(I-36
I3
tp786
a(I-36
I4
tp787
a(I-36
I5
tp788
a(I-36
I6
tp789
a(I-36
I7
tp790
a(I-36
I8
tp791
a(I-36
I9
tp792
a(I-36
I10
tp793
a(I-36
I11
tp794
a(I-35
I0
tp795
a(I-35
I1
tp796
a(I-35
I2
tp797
a(I-35
I3
tp798
a(I-35
I4
tp799
a(I-35
I5
tp800
a(I-35
I6
tp801
a(I-35
I7
tp802
a(I-35
I8
tp803
a(I-35
I9
tp804
a(I-35
I10
tp805
a(I-35
I11
tp806
a(I-34
I0
tp807
a(I-34
I1
tp808
a(I-34
I2
tp809
a(I-34
I3
tp810
a(I-34
I4
tp811
a(I-34
I5
tp812
a(I-34
I6
tp813
a(I-34
I7
tp814
a(I-34
I8
tp815
a(I-34
I9
tp816
a(I-34
I10
tp817
a(I-34
I11
tp818
a(I-33
I0
tp819
a(I-33
I1
tp820
a(I-33
I2
tp821
a(I-33
I3
tp822
a(I-33
I4
tp823
a(I-33
I5
tp824
a(I-33
I6
tp825
a(I-33
I7
tp826
a(I-33
I8
tp827
a(I-33
I9
tp828
a(I-33
I10
tp829
a(I-33
I11
tp830
a(I-32
I0
tp831
a(I-32
I1
tp832
a(I-32
I2
tp833
a(I-32
I3
tp834
a(I-32
I4
tp835
a(I-32
I5
tp836
a(I-32
I6
tp837
a(I-32
I7
tp838
a(I-32
I8
tp839
a(I-32
I9
tp840
a(I-32
I10
tp841
a(I-32
I11
tp842
a(I-31
I0
tp843
a(I-31
I1
tp844
a(I-31
I2
tp845
a(I-31
I3
tp846
a(I-31
I4
tp847
a(I-31
I5
tp848
a(I-31
I6
tp849
a(I-31
I7
tp850
a(I-31
I8
tp851
a(I-31
I9
tp852
a(I-31
I10
tp853
a(I-31
I11
tp854
a(I-30
I0
tp855
a(I-30
I1
tp856
a(I-30
I2
tp857
a(I-30
I3
tp858
a(I-30
I4
tp859
a(I-30
I5
tp860
a(I-30
I6
tp861
a(I-30
I7
tp862
a(I-30
I8
tp863
a(I-30
I9
tp864
a(I-30
I10
tp865
a(I-30
I11
tp866
a(I-29
I0
tp867
a(I-29
I1
tp868
a(I-29
I2
tp869
a(I-29
I3
tp870
a(I-29
I4
tp871
a(I-29
I5
tp872
a(I-29
I6
tp873
a(I-29
I7
tp874
a(I-29
I8
tp875
a(I-29
I9
tp876
a(I-29
I10
tp877
a(I-29
I11
tp878
a(I-28
I0
tp879
a(I-28
I1
tp880
a(I-28
I2
tp881
a(I-28
I3
tp882
a(I-28
I4
tp883
a(I-28
I5
tp884
a(I-28
I6
tp885
a(I-28
I7
tp886
a(I-28
I8
tp887
a(I-28
I9
tp888
a(I-28
I10
tp889
a(I-28
I11
tp890
a(I-27
I0
tp891
a(I-27
I1
tp892
a(I-27
I2
tp893
a(I-27
I3
tp894
a(I-27
I4
tp895
a(I-27
I5
tp896
a(I-27
I6
tp897
a(I-27
I7
tp898
a(I-27
I8
tp899
a(I-27
I9
tp900
a(I-27
I10
tp901
a(I-27
I11
tp902
a(I-26
I0
tp903
a(I-26
I1
tp904
a(I-26
I2
tp905
a(I-26
I3
tp906
a(I-26
I4
tp907
a(I-26
I5
tp908
a(I-26
I6
tp909
a(I-26
I7
tp910
a(I-26
I8
tp911
a(I-26
I9
tp912
a(I-26
I10
tp913
a(I-26
I11
tp914
a(I-25
I0
tp915
a(I-25
I1
tp916
a(I-25
I2
tp917
a(I-25
I3
tp918
a(I-25
I4
tp919
a(I-25
I5
tp920
a(I-25
I6
tp921
a(I-25
I7
tp922
a(I-25
I8
tp923
a(I-25
I9
tp924
a(I-25
I10
tp925
a(I-25
I11
tp926
a(I-24
I0
tp927
a(I-24
I1
tp928
a(I-24
I2
tp929
a(I-24
I3
tp930
a(I-24
I4
tp931
a(I-24
I5
tp932
a(I-24
I6
tp933
a(I-24
I7
tp934
a(I-24
I8
tp935
a(I-24
I9
tp936
a(I-24
I10
tp937
a(I-24
I11
tp938
a(I-23
I0
tp939
a(I-23
I1
tp940
a(I-23
I2
tp941
a(I-23
I3
tp942
a(I-23
I4
tp943
a(I-23
I5
tp944
a(I-23
I6
tp945
a(I-23
I7
tp946
a(I-23
I8
tp947
a(I-23
I9
tp948
a(I-23
I10
tp949
a(I-23
I11
tp950
a(I-22
I0
tp951
a(I-22
I1
tp952
a(I-22
I2
tp953
a(I-22
I3
tp954
a(I-22
I4
tp955
a(I-22
I5
tp956
a(I-22
I6
tp957
a(I-22
I7
tp958
a(I-22
I8
tp959
a(I-22
I9
tp960
a(I-22
I10
tp961
a(I-22
I11
tp962
a(I-21
I0
tp963
a(I-21
I1
tp964
a(I-21
I2
tp965
a(I-21
I3
tp966
a(I-21
I4
tp967
a(I-21
I5
tp968
a(I-21
I6
tp969
a(I-21
I7
tp970
a(I-21
I8
tp971
a(I-21
I9
tp972
a(I-21
I10
tp973
a(I-21
I11
tp974
a(I-20
I0
tp975
a(I-20
I1
tp976
a(I-20
I2
tp977
a(I-20
I3
tp978
a(I-20
I4
tp979
a(I-20
I5
tp980
a(I-20
I6
tp981
a(I-20
I7
tp982
a(I-20
I8
tp983
a(I-20
I9
tp984
a(I-20
I10
tp985
a(I-20
I11
tp986
a(I-19
I0
tp987
a(I-19
I1
tp988
a(I-19
I2
tp989
a(I-19
I3
tp990
a(I-19
I4
tp991
a(I-19
I5
tp992
a(I-19
I6
tp993
a(I-19
I7
tp994
a(I-19
I8
tp995
a(I-19
I9
tp996
a(I-19
I10
tp997
a(I-19
I11
tp998
a(I-18
I0
tp999
a(I-18
I1
tp1000
a(I-18
I2
tp1001
a(I-18
I3
tp1002
a(I-18
I4
tp1003
a(I-18
I5
tp1004
a(I-18
I6
tp1005
a(I-18
I7
tp1006
a(I-18
I8
tp1007
a(I-18
I9
tp1008
a(I-18
I10
tp1009
a(I-18
I11
tp1010
a(I-17
I0
tp1011
a(I-17
I1
tp1012
a(I-17
I2
tp1013
a(I-17
I3
tp1014
a(I-17
I4
tp1015
a(I-17
I5
tp1016
a(I-17
I6
tp1017
a(I-17
I7
tp1018
a(I-17
I8
tp1019
a(I-17
I9
tp1020
a(I-17
I10
tp1021
a(I-17
I11
tp1022
a(I-16
I0
tp1023
a(I-16
I1
tp1024
a(I-16
I2
tp1025
a(I-16
I3
tp1026
a(I-16
I4
tp1027
a(I-16
I5
tp1028
a(I-16
I6
tp1029
a(I-16
I7
tp1030
a(I-16
I8
tp1031
a(I-16
I9
tp1032
a(I-16
I10
tp1033
a(I-16
I11
tp1034
a(I-15
I0
tp1035
a(I-15
I1
tp1036
a(I-15
I2
tp1037
a(I-15
I3
tp1038
a(I-15
I4
tp1039
a(I-15
I5
tp1040
a(I-15
I6
tp1041
a(I-15
I7
tp1042
a(I-15
I8
tp1043
a(I-15
I9
tp1044
a(I-15
I10
tp1045
a(I-15
I11
tp1046
a(I-14
I0
tp1047
a(I-14
I1
tp1048
a(I-14
I2
tp1049
a(I-14
I3
tp1050
a(I-14
I4
tp1051
a(I-14
I5
tp1052
a(I-14
I6
tp1053
a(I-14
I7
tp1054
a(I-14
I8
tp1055
a(I-14
I9
tp1056
a(I-14
I10
tp1057
a(I-14
I11
tp1058
a(I-24
I36
tp1059
a(I-24
I37
tp1060
a(I-23
I36
tp1061
a(I-23
I37
tp1062
a(I-22
I36
tp1063
a(I-22
I37
tp1064
a(I-21
I36
tp1065
a(I-21
I37
tp1066
a(I-20
I36
tp1067
a(I-20
I37
tp1068
a(I-19
I36
tp1069
a(I-19
I37
tp1070
a(I-18
I36
tp1071
a(I-18
I37
tp1072
a(I-17
I36
tp1073
a(I-17
I37
tp1074
a(I-16
I36
tp1075
a(I-16
I37
tp1076
a(I-11
I36
tp1077
a(I-11
I37
tp1078
a(I-10
I36
tp1079
a(I-10
I37
tp1080
a(I-9
I36
tp1081
a(I-9
I37
tp1082
a(I-8
I36
tp1083
a(I-8
I37
tp1084
a(I-7
I36
tp1085
a(I-7
I37
tp1086
a(I-6
I36
tp1087
a(I-6
I37
tp1088
a(I-5
I36
tp1089
a(I-5
I37
tp1090
a(I-4
I36
tp1091
a(I-4
I37
tp1092
a(I-3
I36
tp1093
a(I-3
I37
tp1094
a(I-2
I36
tp1095
a(I-2
I37
tp1096
a(I-1
I36
tp1097
a(I-1
I37
tp1098
a(I0
I36
tp1099
a(I0
I37
tp1100
a(I1
I36
tp1101
a(I1
I37
tp1102
a(I2
I36
tp1103
a(I2
I37
tp1104
a(I3
I36
tp1105
a(I3
I37
tp1106
a(I4
I36
tp1107
a(I4
I37
tp1108
a(I5
I36
tp1109
a(I5
I37
tp1110
a(I6
I36
tp1111
a(I6
I37
tp1112
a(I7
I36
tp1113
a(I7
I37
tp1114
a(I8
I36
tp1115
a(I8
I37
tp1116
a(I9
I36
tp1117
a(I9
I37
tp1118
a(I10
I36
tp1119
a(I10
I37
tp1120
a(I11
I36
tp1121
a(I11
I37
tp1122
a(I12
I36
tp1123
a(I12
I37
tp1124
a(I13
I36
tp1125
a(I13
I37
tp1126
a(I14
I36
tp1127
a(I14
I37
tp1128
a(I15
I36
tp1129
a(I15
I37
tp1130
a(I16
I36
tp1131
a(I16
I37
tp1132
a(I17
I36
tp1133
a(I17
I37
tp1134
a(I18
I36
tp1135
a(I18
I37
tp1136
a(I18
I27
tp1137
a(I18
I28
tp1138
a(I18
I29
tp1139
a(I18
I30
tp1140
a(I18
I31
tp1141
a(I18
I32
tp1142
a(I18
I33
tp1143
a(I18
I34
tp1144
a(I18
I35
tp1145
a(I18
I36
tp1146
a(I18
I37
tp1147
a(I-55
I41
tp1148
a(I-54
I41
tp1149
a(I-55
I42
tp1150
a(I-54
I42
tp1151
a(I-55
I43
tp1152
a(I-54
I43
tp1153
a(I-55
I44
tp1154
a(I-54
I44
tp1155
a(I-55
I45
tp1156
a(I-54
I45
tp1157
a(I-55
I46
tp1158
a(I-54
I46
tp1159
a(I17
I23
tp1160
a(I17
I24
tp1161
a(I18
I23
tp1162
a(I18
I24
tp1163
a(I-4
I23
tp1164
a(I-4
I24
tp1165
a(I-3
I23
tp1166
a(I-3
I24
tp1167
a(I-2
I23
tp1168
a(I-2
I24
tp1169
a(I-1
I23
tp1170
a(I-1
I24
tp1171
a(I0
I23
tp1172
a(I0
I24
tp1173
a(I1
I23
tp1174
a(I1
I24
tp1175
a(I2
I23
tp1176
a(I2
I24
tp1177
a(I3
I23
tp1178
a(I3
I24
tp1179
a(I4
I23
tp1180
a(I4
I24
tp1181
a(I5
I23
tp1182
a(I5
I24
tp1183
a(I6
I23
tp1184
a(I6
I24
tp1185
a(I7
I23
tp1186
a(I7
I24
tp1187
a(I8
I23
tp1188
a(I8
I24
tp1189
a(I9
I23
tp1190
a(I9
I24
tp1191
a(I10
I23
tp1192
a(I10
I24
tp1193
a(I11
I23
tp1194
a(I11
I24
tp1195
a(I12
I23
tp1196
a(I12
I24
tp1197
a(I13
I23
tp1198
a(I13
I24
tp1199
a(I14
I23
tp1200
a(I14
I24
tp1201
a(I15
I23
tp1202
a(I15
I24
tp1203
a(I16
I23
tp1204
a(I16
I24
tp1205
a(I17
I23
tp1206
a(I17
I24
tp1207
a(I-4
I23
tp1208
a(I-4
I24
tp1209
a(I-4
I25
tp1210
a(I-4
I26
tp1211
a(I-4
I27
tp1212
a(I-4
I28
tp1213
a(I-4
I29
tp1214
a(I-4
I30
tp1215
a(I-4
I31
tp1216
a(I-4
I32
tp1217
a(I-4
I33
tp1218
a(I-4
I34
tp1219
a(I-4
I35
tp1220
a(I-4
I36
tp1221
a(I-4
I37
tp1222
a(I18
I9
tp1223
a(I18
I10
tp1224
a(I18
I11
tp1225
a(I18
I12
tp1226
a(I18
I13
tp1227
a(I18
I14
tp1228
a(I18
I15
tp1229
a(I18
I16
tp1230
a(I18
I17
tp1231
a(I18
I18
tp1232
a(I18
I19
tp1233
a(I18
I20
tp1234
a(I-11
I10
tp1235
a(I-11
I11
tp1236
a(I-10
I10
tp1237
a(I-10
I11
tp1238
a(I-9
I10
tp1239
a(I-9
I11
tp1240
a(I-8
I10
tp1241
a(I-8
I11
tp1242
a(I-7
I10
tp1243
a(I-7
I11
tp1244
a(I-6
I10
tp1245
a(I-6
I11
tp1246
a(I-5
I10
tp1247
a(I-5
I11
tp1248
a(I-4
I10
tp1249
a(I-4
I11
tp1250
a(I-3
I10
tp1251
a(I-3
I11
tp1252
a(I-2
I10
tp1253
a(I-2
I11
tp1254
a(I-1
I10
tp1255
a(I-1
I11
tp1256
a(I0
I10
tp1257
a(I0
I11
tp1258
a(I1
I10
tp1259
a(I1
I11
tp1260
a(I2
I10
tp1261
a(I2
I11
tp1262
a(I3
I10
tp1263
a(I3
I11
tp1264
a(I4
I10
tp1265
a(I4
I11
tp1266
a(I5
I10
tp1267
a(I5
I11
tp1268
a(I6
I10
tp1269
a(I6
I11
tp1270
a(I7
I10
tp1271
a(I7
I11
tp1272
a(I8
I10
tp1273
a(I8
I11
tp1274
a(I9
I10
tp1275
a(I9
I11
tp1276
a(I10
I10
tp1277
a(I10
I11
tp1278
a(I11
I10
tp1279
a(I11
I11
tp1280
a(I12
I10
tp1281
a(I12
I11
tp1282
a(I13
I10
tp1283
a(I13
I11
tp1284
a(I14
I10
tp1285
a(I14
I11
tp1286
a(I15
I10
tp1287
a(I15
I11
tp1288
a(I16
I10
tp1289
a(I16
I11
tp1290
a(I17
I10
tp1291
a(I17
I11
tp1292
a(I1
I8
tp1293
a(I2
I8
tp1294
a(I1
I9
tp1295
a(I2
I9
tp1296
a(I1
I10
tp1297
a(I2
I10
tp1298
a(I1
I11
tp1299
a(I2
I11
tp1300
a(I1
I12
tp1301
a(I2
I12
tp1302
a(I1
I13
tp1303
a(I2
I13
tp1304
a(I1
I14
tp1305
a(I2
I14
tp1306
a(I1
I15
tp1307
a(I2
I15
tp1308
a(I1
I16
tp1309
a(I2
I16
tp1310
a(I1
I17
tp1311
a(I2
I17
tp1312
a(I1
I18
tp1313
a(I2
I18
tp1314
a(I1
I19
tp1315
a(I2
I19
tp1316
a(I-4
I8
tp1317
a(I-4
I9
tp1318
a(I-4
I10
tp1319
a(I-4
I11
tp1320
a(I-4
I12
tp1321
a(I-4
I13
tp1322
a(I-4
I14
tp1323
a(I-4
I15
tp1324
a(I-4
I16
tp1325
a(I-4
I17
tp1326
a(I-4
I18
tp1327
a(I-4
I19
tp1328
a(I-16
I-40
tp1329
a(I-16
I-39
tp1330
a(I-16
I-38
tp1331
a(I-16
I-37
tp1332
a(I-16
I-36
tp1333
a(I-16
I-35
tp1334
a(I-16
I-34
tp1335
a(I-16
I-33
tp1336
a(I-16
I-32
tp1337
a(I-16
I-31
tp1338
a(I-16
I-30
tp1339
a(I-16
I-29
tp1340
a(I-16
I-28
tp1341
a(I-16
I-27
tp1342
a(I-16
I-26
tp1343
a(I-16
I-25
tp1344
a(I-16
I-24
tp1345
a(I-16
I-23
tp1346
a(I-16
I-22
tp1347
a(I-16
I-21
tp1348
a(I-16
I-20
tp1349
a(I-16
I-19
tp1350
a(I-16
I-18
tp1351
a(I-16
I-17
tp1352
a(I-16
I-16
tp1353
a(I-16
I-15
tp1354
a(I-16
I-14
tp1355
a(I-16
I-13
tp1356
a(I-16
I-12
tp1357
a(I-16
I-11
tp1358
a(I-16
I-10
tp1359
a(I-16
I-9
tp1360
a(I-16
I-8
tp1361
a(I-16
I-7
tp1362
a(I-16
I-6
tp1363
a(I-16
I-5
tp1364
a(I-16
I-4
tp1365
a(I-16
I-3
tp1366
a(I-16
I-2
tp1367
a(I-16
I-1
tp1368
a(I-16
I0
tp1369
a(I-16
I1
tp1370
a(I-16
I2
tp1371
a(I-16
I3
tp1372
a(I-16
I4
tp1373
a(I-16
I5
tp1374
a(I-16
I6
tp1375
a(I-16
I7
tp1376
a(I-16
I8
tp1377
a(I-16
I9
tp1378
a(I-16
I10
tp1379
a(I-16
I11
tp1380
a(I-75
I-40
tp1381
a(I-75
I-39
tp1382
a(I-75
I-38
tp1383
a(I-74
I-40
tp1384
a(I-74
I-39
tp1385
a(I-74
I-38
tp1386
a(I-73
I-40
tp1387
a(I-73
I-39
tp1388
a(I-73
I-38
tp1389
a(I-72
I-40
tp1390
a(I-72
I-39
tp1391
a(I-72
I-38
tp1392
a(I-71
I-40
tp1393
a(I-71
I-39
tp1394
a(I-71
I-38
tp1395
a(I-70
I-40
tp1396
a(I-70
I-39
tp1397
a(I-70
I-38
tp1398
a(I-69
I-40
tp1399
a(I-69
I-39
tp1400
a(I-69
I-38
tp1401
a(I-68
I-40
tp1402
a(I-68
I-39
tp1403
a(I-68
I-38
tp1404
a(I-67
I-40
tp1405
a(I-67
I-39
tp1406
a(I-67
I-38
tp1407
a(I-66
I-40
tp1408
a(I-66
I-39
tp1409
a(I-66
I-38
tp1410
a(I-65
I-40
tp1411
a(I-65
I-39
tp1412
a(I-65
I-38
tp1413
a(I-64
I-40
tp1414
a(I-64
I-39
tp1415
a(I-64
I-38
tp1416
a(I-63
I-40
tp1417
a(I-63
I-39
tp1418
a(I-63
I-38
tp1419
a(I-62
I-40
tp1420
a(I-62
I-39
tp1421
a(I-62
I-38
tp1422
a(I-61
I-40
tp1423
a(I-61
I-39
tp1424
a(I-61
I-38
tp1425
a(I-60
I-40
tp1426
a(I-60
I-39
tp1427
a(I-60
I-38
tp1428
a(I-59
I-40
tp1429
a(I-59
I-39
tp1430
a(I-59
I-38
tp1431
a(I-58
I-40
tp1432
a(I-58
I-39
tp1433
a(I-58
I-38
tp1434
a(I-57
I-40
tp1435
a(I-57
I-39
tp1436
a(I-57
I-38
tp1437
a(I-56
I-40
tp1438
a(I-56
I-39
tp1439
a(I-56
I-38
tp1440
a(I-55
I-40
tp1441
a(I-55
I-39
tp1442
a(I-55
I-38
tp1443
a(I-54
I-40
tp1444
a(I-54
I-39
tp1445
a(I-54
I-38
tp1446
a(I-53
I-40
tp1447
a(I-53
I-39
tp1448
a(I-53
I-38
tp1449
a(I-52
I-40
tp1450
a(I-52
I-39
tp1451
a(I-52
I-38
tp1452
a(I-51
I-40
tp1453
a(I-51
I-39
tp1454
a(I-51
I-38
tp1455
a(I-50
I-40
tp1456
a(I-50
I-39
tp1457
a(I-50
I-38
tp1458
a(I-49
I-40
tp1459
a(I-49
I-39
tp1460
a(I-49
I-38
tp1461
a(I-48
I-40
tp1462
a(I-48
I-39
tp1463
a(I-48
I-38
tp1464
a(I-47
I-40
tp1465
a(I-47
I-39
tp1466
a(I-47
I-38
tp1467
a(I-46
I-40
tp1468
a(I-46
I-39
tp1469
a(I-46
I-38
tp1470
a(I-45
I-40
tp1471
a(I-45
I-39
tp1472
a(I-45
I-38
tp1473
a(I-44
I-40
tp1474
a(I-44
I-39
tp1475
a(I-44
I-38
tp1476
a(I-43
I-40
tp1477
a(I-43
I-39
tp1478
a(I-43
I-38
tp1479
a(I-42
I-40
tp1480
a(I-42
I-39
tp1481
a(I-42
I-38
tp1482
a(I-41
I-40
tp1483
a(I-41
I-39
tp1484
a(I-41
I-38
tp1485
a(I-40
I-40
tp1486
a(I-40
I-39
tp1487
a(I-40
I-38
tp1488
a(I-39
I-40
tp1489
a(I-39
I-39
tp1490
a(I-39
I-38
tp1491
a(I-38
I-40
tp1492
a(I-38
I-39
tp1493
a(I-38
I-38
tp1494
a(I-37
I-40
tp1495
a(I-37
I-39
tp1496
a(I-37
I-38
tp1497
a(I-36
I-40
tp1498
a(I-36
I-39
tp1499
a(I-36
I-38
tp1500
a(I-35
I-40
tp1501
a(I-35
I-39
tp1502
a(I-35
I-38
tp1503
a(I-34
I-40
tp1504
a(I-34
I-39
tp1505
a(I-34
I-38
tp1506
a(I-33
I-40
tp1507
a(I-33
I-39
tp1508
a(I-33
I-38
tp1509
a(I-32
I-40
tp1510
a(I-32
I-39
tp1511
a(I-32
I-38
tp1512
a(I-31
I-40
tp1513
a(I-31
I-39
tp1514
a(I-31
I-38
tp1515
a(I-30
I-40
tp1516
a(I-30
I-39
tp1517
a(I-30
I-38
tp1518
a(I-29
I-40
tp1519
a(I-29
I-39
tp1520
a(I-29
I-38
tp1521
a(I-28
I-40
tp1522
a(I-28
I-39
tp1523
a(I-28
I-38
tp1524
a(I-27
I-40
tp1525
a(I-27
I-39
tp1526
a(I-27
I-38
tp1527
a(I-26
I-40
tp1528
a(I-26
I-39
tp1529
a(I-26
I-38
tp1530
a(I-25
I-40
tp1531
a(I-25
I-39
tp1532
a(I-25
I-38
tp1533
a(I-24
I-40
tp1534
a(I-24
I-39
tp1535
a(I-24
I-38
tp1536
a(I-23
I-40
tp1537
a(I-23
I-39
tp1538
a(I-23
I-38
tp1539
a(I-22
I-40
tp1540
a(I-22
I-39
tp1541
a(I-22
I-38
tp1542
a(I-21
I-40
tp1543
a(I-21
I-39
tp1544
a(I-21
I-38
tp1545
a(I-20
I-40
tp1546
a(I-20
I-39
tp1547
a(I-20
I-38
tp1548
a(I-19
I-40
tp1549
a(I-19
I-39
tp1550
a(I-19
I-38
tp1551
a(I-18
I-40
tp1552
a(I-18
I-39
tp1553
a(I-18
I-38
tp1554
a(I-17
I-40
tp1555
a(I-17
I-39
tp1556
a(I-17
I-38
tp1557
a(I-16
I-40
tp1558
a(I-16
I-39
tp1559
a(I-16
I-38
tp1560
a(I-76
I-46
tp1561
a(I-76
I-45
tp1562
a(I-76
I-44
tp1563
a(I-76
I-43
tp1564
a(I-76
I-42
tp1565
a(I-76
I-41
tp1566
a(I-76
I-40
tp1567
a(I-76
I-39
tp1568
a(I-80
I-46
tp1569
a(I-80
I-45
tp1570
a(I-79
I-46
tp1571
a(I-79
I-45
tp1572
a(I-78
I-46
tp1573
a(I-78
I-45
tp1574
a(I-77
I-46
tp1575
a(I-77
I-45
tp1576
a(I-76
I-46
tp1577
a(I-76
I-45
tp1578
a(I-80
I-62
tp1579
a(I-80
I-61
tp1580
a(I-80
I-60
tp1581
a(I-80
I-59
tp1582
a(I-80
I-58
tp1583
a(I-80
I-57
tp1584
a(I-80
I-56
tp1585
a(I-80
I-55
tp1586
a(I-80
I-54
tp1587
a(I-80
I-53
tp1588
a(I-80
I-52
tp1589
a(I-80
I-51
tp1590
a(I-80
I-50
tp1591
a(I-80
I-49
tp1592
a(I-80
I-48
tp1593
a(I-80
I-47
tp1594
a(I-80
I-46
tp1595
a(I-80
I-45
tp1596
a(I-86
I-67
tp1597
a(I-86
I-66
tp1598
a(I-85
I-67
tp1599
a(I-85
I-66
tp1600
a(I-84
I-67
tp1601
a(I-84
I-66
tp1602
a(I-83
I-67
tp1603
a(I-83
I-66
tp1604
a(I-82
I-67
tp1605
a(I-82
I-66
tp1606
a(I-81
I-67
tp1607
a(I-81
I-66
tp1608
a(I-80
I-67
tp1609
a(I-80
I-66
tp1610
a(I-79
I-67
tp1611
a(I-79
I-66
tp1612
a(I-78
I-67
tp1613
a(I-78
I-66
tp1614
a(I-77
I-67
tp1615
a(I-77
I-66
tp1616
a(I-76
I-67
tp1617
a(I-76
I-66
tp1618
a(I-75
I-67
tp1619
a(I-75
I-66
tp1620
a(I-74
I-67
tp1621
a(I-74
I-66
tp1622
a(I-73
I-67
tp1623
a(I-73
I-66
tp1624
a(I-72
I-67
tp1625
a(I-72
I-66
tp1626
a(I-87
I-78
tp1627
a(I-87
I-77
tp1628
a(I-87
I-76
tp1629
a(I-87
I-75
tp1630
a(I-87
I-74
tp1631
a(I-87
I-73
tp1632
a(I-87
I-72
tp1633
a(I-87
I-78
tp1634
a(I-87
I-77
tp1635
a(I-86
I-78
tp1636
a(I-86
I-77
tp1637
a(I-85
I-78
tp1638
a(I-85
I-77
tp1639
a(I-84
I-78
tp1640
a(I-84
I-77
tp1641
a(I-79
I-78
tp1642
a(I-79
I-77
tp1643
a(I-78
I-78
tp1644
a(I-78
I-77
tp1645
a(I-77
I-78
tp1646
a(I-77
I-77
tp1647
a(I-77
I-78
tp1648
a(I-77
I-77
tp1649
a(I-77
I-76
tp1650
a(I-77
I-75
tp1651
a(I-77
I-74
tp1652
a(I-77
I-74
tp1653
a(I-77
I-73
tp1654
a(I-76
I-74
tp1655
a(I-76
I-73
tp1656
a(I-75
I-74
tp1657
a(I-75
I-73
tp1658
a(I-74
I-74
tp1659
a(I-74
I-73
tp1660
a(I-73
I-74
tp1661
a(I-73
I-73
tp1662
a(I-72
I-74
tp1663
a(I-72
I-73
tp1664
a(I-71
I-74
tp1665
a(I-71
I-73
tp1666
a(I-70
I-74
tp1667
a(I-70
I-73
tp1668
a(I-69
I-74
tp1669
a(I-69
I-73
tp1670
a(I-68
I-74
tp1671
a(I-68
I-73
tp1672
a(I-67
I-74
tp1673
a(I-67
I-73
tp1674
a(I-66
I-74
tp1675
a(I-66
I-73
tp1676
a(I-65
I-74
tp1677
a(I-65
I-73
tp1678
a(I-64
I-74
tp1679
a(I-64
I-73
tp1680
a(I-63
I-74
tp1681
a(I-63
I-73
tp1682
a(I-62
I-74
tp1683
a(I-62
I-73
tp1684
a(I-61
I-74
tp1685
a(I-61
I-73
tp1686
a(I-60
I-74
tp1687
a(I-60
I-73
tp1688
a(I-59
I-74
tp1689
a(I-59
I-73
tp1690
a(I-58
I-74
tp1691
a(I-58
I-73
tp1692
a(I-57
I-74
tp1693
a(I-57
I-73
tp1694
a(I-56
I-74
tp1695
a(I-56
I-73
tp1696
a(I-55
I-74
tp1697
a(I-55
I-73
tp1698
a(I-54
I-74
tp1699
a(I-54
I-73
tp1700
a(I-53
I-74
tp1701
a(I-53
I-73
tp1702
a(I-52
I-74
tp1703
a(I-52
I-73
tp1704
a(I-51
I-74
tp1705
a(I-51
I-73
tp1706
a(I-50
I-74
tp1707
a(I-50
I-73
tp1708
a(I-49
I-74
tp1709
a(I-49
I-73
tp1710
a(I-48
I-74
tp1711
a(I-48
I-73
tp1712
a(I-47
I-74
tp1713
a(I-47
I-73
tp1714
a(I-46
I-74
tp1715
a(I-46
I-73
tp1716
a(I-45
I-74
tp1717
a(I-45
I-73
tp1718
a(I-44
I-74
tp1719
a(I-44
I-73
tp1720
a(I-43
I-74
tp1721
a(I-43
I-73
tp1722
a(I-42
I-74
tp1723
a(I-42
I-73
tp1724
a(I-41
I-74
tp1725
a(I-41
I-73
tp1726
a(I-40
I-74
tp1727
a(I-40
I-73
tp1728
a(I-39
I-74
tp1729
a(I-39
I-73
tp1730
a(I-38
I-74
tp1731
a(I-38
I-73
tp1732
a(I-37
I-74
tp1733
a(I-37
I-73
tp1734
a(I-36
I-74
tp1735
a(I-36
I-73
tp1736
a(I-35
I-74
tp1737
a(I-35
I-73
tp1738
a(I-34
I-74
tp1739
a(I-34
I-73
tp1740
a(I-33
I-74
tp1741
a(I-33
I-73
tp1742
a(I-32
I-74
tp1743
a(I-32
I-73
tp1744
a(I-31
I-74
tp1745
a(I-31
I-73
tp1746
a(I-30
I-74
tp1747
a(I-30
I-73
tp1748
a(I-29
I-74
tp1749
a(I-29
I-73
tp1750
a(I-28
I-74
tp1751
a(I-28
I-73
tp1752
a(I-27
I-74
tp1753
a(I-27
I-73
tp1754
a(I-26
I-74
tp1755
a(I-26
I-73
tp1756
a(I-25
I-74
tp1757
a(I-25
I-73
tp1758
a(I-24
I-74
tp1759
a(I-24
I-73
tp1760
a(I-23
I-74
tp1761
a(I-23
I-73
tp1762
a(I-22
I-74
tp1763
a(I-22
I-73
tp1764
a(I-21
I-74
tp1765
a(I-21
I-73
tp1766
a(I-20
I-74
tp1767
a(I-20
I-73
tp1768
a(I-19
I-74
tp1769
a(I-19
I-73
tp1770
a(I-18
I-74
tp1771
a(I-18
I-73
tp1772
a(I-17
I-74
tp1773
a(I-17
I-73
tp1774
a(I-16
I-74
tp1775
a(I-16
I-73
tp1776
a(I-15
I-74
tp1777
a(I-15
I-73
tp1778
a(I-14
I-74
tp1779
a(I-14
I-73
tp1780
a(I-13
I-74
tp1781
a(I-13
I-73
tp1782
a(I-12
I-74
tp1783
a(I-12
I-73
tp1784
a(I-11
I-74
tp1785
a(I-11
I-73
tp1786
a(I-10
I-74
tp1787
a(I-10
I-73
tp1788
a(I-9
I-74
tp1789
a(I-9
I-73
tp1790
a(I-8
I-74
tp1791
a(I-8
I-73
tp1792
a(I-7
I-74
tp1793
a(I-7
I-73
tp1794
a(I-6
I-74
tp1795
a(I-6
I-73
tp1796
a(I-5
I-74
tp1797
a(I-5
I-73
tp1798
a(I-4
I-74
tp1799
a(I-4
I-73
tp1800
a(I-3
I-74
tp1801
a(I-3
I-73
tp1802
a(I-2
I-74
tp1803
a(I-2
I-73
tp1804
a(I-1
I-74
tp1805
a(I-1
I-73
tp1806
a(I0
I-74
tp1807
a(I0
I-73
tp1808
a(I1
I-74
tp1809
a(I1
I-73
tp1810
a(I2
I-74
tp1811
a(I2
I-73
tp1812
a(I3
I-74
tp1813
a(I3
I-73
tp1814
a(I4
I-74
tp1815
a(I4
I-73
tp1816
a(I5
I-74
tp1817
a(I5
I-73
tp1818
a(I6
I-74
tp1819
a(I6
I-73
tp1820
a(I7
I-74
tp1821
a(I7
I-73
tp1822
a(I8
I-74
tp1823
a(I8
I-73
tp1824
a(I9
I-74
tp1825
a(I9
I-73
tp1826
a(I10
I-74
tp1827
a(I10
I-73
tp1828
a(I11
I-74
tp1829
a(I11
I-73
tp1830
a(I12
I-74
tp1831
a(I12
I-73
tp1832
a(I13
I-74
tp1833
a(I13
I-73
tp1834
a(I14
I-74
tp1835
a(I14
I-73
tp1836
a(I15
I-74
tp1837
a(I15
I-73
tp1838
a(I16
I-74
tp1839
a(I16
I-73
tp1840
a(I17
I-74
tp1841
a(I17
I-73
tp1842
a(I18
I-74
tp1843
a(I18
I-73
tp1844
a(I19
I-74
tp1845
a(I19
I-73
tp1846
a(I20
I-74
tp1847
a(I20
I-73
tp1848
a(I21
I-74
tp1849
a(I21
I-73
tp1850
a(I22
I-74
tp1851
a(I22
I-73
tp1852
a(I23
I-74
tp1853
a(I23
I-73
tp1854
a(I24
I-74
tp1855
a(I24
I-73
tp1856
a(I25
I-74
tp1857
a(I25
I-73
tp1858
a(I26
I-74
tp1859
a(I26
I-73
tp1860
a(I27
I-74
tp1861
a(I27
I-73
tp1862
a(I28
I-74
tp1863
a(I28
I-73
tp1864
a(I29
I-74
tp1865
a(I29
I-73
tp1866
a(I30
I-74
tp1867
a(I30
I-73
tp1868
a(I31
I-74
tp1869
a(I31
I-73
tp1870
a(I32
I-74
tp1871
a(I32
I-73
tp1872
a(I33
I-74
tp1873
a(I33
I-73
tp1874
a(I34
I-74
tp1875
a(I34
I-73
tp1876
a(I35
I-74
tp1877
a(I35
I-73
tp1878
a(I36
I-74
tp1879
a(I36
I-73
tp1880
a(I37
I-74
tp1881
a(I37
I-73
tp1882
a(I38
I-74
tp1883
a(I38
I-73
tp1884
a(I39
I-74
tp1885
a(I39
I-73
tp1886
a(I40
I-74
tp1887
a(I40
I-73
tp1888
a(I41
I-74
tp1889
a(I41
I-73
tp1890
a(I42
I-74
tp1891
a(I42
I-73
tp1892
a(I43
I-74
tp1893
a(I43
I-73
tp1894
a(I44
I-74
tp1895
a(I44
I-73
tp1896
a(I45
I-74
tp1897
a(I45
I-73
tp1898
a(I46
I-74
tp1899
a(I46
I-73
tp1900
a(I47
I-74
tp1901
a(I47
I-73
tp1902
a(I48
I-74
tp1903
a(I48
I-73
tp1904
a(I49
I-74
tp1905
a(I49
I-73
tp1906
a(I50
I-74
tp1907
a(I50
I-73
tp1908
a(I51
I-74
tp1909
a(I51
I-73
tp1910
a(I51
I-74
tp1911
a(I51
I-73
tp1912
a(I52
I-74
tp1913
a(I52
I-73
tp1914
a(I53
I-74
tp1915
a(I53
I-73
tp1916
a(I54
I-74
tp1917
a(I54
I-73
tp1918
a(I55
I-74
tp1919
a(I55
I-73
tp1920
a(I56
I-74
tp1921
a(I56
I-73
tp1922
a(I57
I-74
tp1923
a(I57
I-73
tp1924
a(I58
I-74
tp1925
a(I58
I-73
tp1926
a(I59
I-74
tp1927
a(I59
I-73
tp1928
a(I60
I-74
tp1929
a(I60
I-73
tp1930
a(I61
I-74
tp1931
a(I61
I-73
tp1932
a(I62
I-74
tp1933
a(I62
I-73
tp1934
a(I63
I-74
tp1935
a(I63
I-73
tp1936
a(I64
I-74
tp1937
a(I64
I-73
tp1938
a(I65
I-74
tp1939
a(I65
I-73
tp1940
a(I66
I-74
tp1941
a(I66
I-73
tp1942
a(I67
I-74
tp1943
a(I67
I-73
tp1944
a(I68
I-74
tp1945
a(I68
I-73
tp1946
a(I69
I-74
tp1947
a(I69
I-73
tp1948
a(I70
I-74
tp1949
a(I70
I-73
tp1950
a(I71
I-74
tp1951
a(I71
I-73
tp1952
a(I72
I-74
tp1953
a(I72
I-73
tp1954
a(I73
I-74
tp1955
a(I73
I-73
tp1956
a(I74
I-74
tp1957
a(I74
I-73
tp1958
a(I75
I-74
tp1959
a(I75
I-73
tp1960
a(I76
I-74
tp1961
a(I76
I-73
tp1962
a(I77
I-74
tp1963
a(I77
I-73
tp1964
a(I78
I-74
tp1965
a(I78
I-73
tp1966
a(I79
I-74
tp1967
a(I79
I-73
tp1968
a(I80
I-74
tp1969
a(I80
I-73
tp1970
a(I81
I-74
tp1971
a(I81
I-73
tp1972
a(I82
I-74
tp1973
a(I82
I-73
tp1974
a(I83
I-74
tp1975
a(I83
I-73
tp1976
a(I-67
I-67
tp1977
a(I-67
I-66
tp1978
a(I-67
I-65
tp1979
a(I-67
I-64
tp1980
a(I-67
I-63
tp1981
a(I-67
I-62
tp1982
a(I-67
I-61
tp1983
a(I-67
I-60
tp1984
a(I-67
I-59
tp1985
a(I-67
I-58
tp1986
a(I-67
I-57
tp1987
a(I-67
I-56
tp1988
a(I-67
I-55
tp1989
a(I-67
I-54
tp1990
a(I-67
I-53
tp1991
a(I-67
I-52
tp1992
a(I-67
I-51
tp1993
a(I-67
I-50
tp1994
a(I-67
I-49
tp1995
a(I-67
I-48
tp1996
a(I-67
I-47
tp1997
a(I-67
I-46
tp1998
a(I-67
I-45
tp1999
a(I-76
I-46
tp2000
a(I-76
I-45
tp2001
a(I-75
I-46
tp2002
a(I-75
I-45
tp2003
a(I-74
I-46
tp2004
a(I-74
I-45
tp2005
a(I-73
I-46
tp2006
a(I-73
I-45
tp2007
a(I-72
I-46
tp2008
a(I-72
I-45
tp2009
a(I-71
I-46
tp2010
a(I-71
I-45
tp2011
a(I-70
I-46
tp2012
a(I-70
I-45
tp2013
a(I-69
I-46
tp2014
a(I-69
I-45
tp2015
a(I-68
I-46
tp2016
a(I-68
I-45
tp2017
a(I-67
I-46
tp2018
a(I-67
I-45
tp2019
a(I-67
I-44
tp2020
a(I-67
I-43
tp2021
a(I-67
I-42
tp2022
a(I-67
I-41
tp2023
a(I-67
I-40
tp2024
a(I-67
I-39
tp2025
a(I-67
I-38
tp2026
a(I-49
I41
tp2027
a(I-49
I42
tp2028
a(I-49
I43
tp2029
a(I-49
I44
tp2030
a(I-49
I45
tp2031
a(I-49
I46
tp2032
a(I-49
I47
tp2033
a(I-49
I48
tp2034
a(I-49
I49
tp2035
a(I-49
I50
tp2036
a(I-49
I51
tp2037
a(I-49
I52
tp2038
a(I-49
I53
tp2039
a(I-68
I-66
tp2040
a(I-68
I-65
tp2041
a(I-67
I-66
tp2042
a(I-67
I-65
tp2043
a(I-66
I-66
tp2044
a(I-66
I-65
tp2045
a(I-65
I-66
tp2046
a(I-65
I-65
tp2047
a(I-64
I-66
tp2048
a(I-64
I-65
tp2049
a(I-61
I-68
tp2050
a(I-61
I-67
tp2051
a(I-61
I-66
tp2052
a(I-61
I-65
tp2053
a(I-61
I-64
tp2054
a(I-61
I-66
tp2055
a(I-61
I-65
tp2056
a(I-61
I-64
tp2057
a(I-60
I-66
tp2058
a(I-60
I-65
tp2059
a(I-60
I-64
tp2060
a(I-59
I-66
tp2061
a(I-59
I-65
tp2062
a(I-59
I-64
tp2063
a(I-58
I-66
tp2064
a(I-58
I-65
tp2065
a(I-58
I-64
tp2066
a(I-57
I-66
tp2067
a(I-57
I-65
tp2068
a(I-57
I-64
tp2069
a(I-56
I-66
tp2070
a(I-56
I-65
tp2071
a(I-56
I-64
tp2072
a(I-55
I-66
tp2073
a(I-55
I-65
tp2074
a(I-55
I-64
tp2075
a(I-54
I-66
tp2076
a(I-54
I-65
tp2077
a(I-54
I-64
tp2078
a(I-53
I-66
tp2079
a(I-53
I-65
tp2080
a(I-53
I-64
tp2081
a(I-52
I-66
tp2082
a(I-52
I-65
tp2083
a(I-52
I-64
tp2084
a(I-51
I-66
tp2085
a(I-51
I-65
tp2086
a(I-51
I-64
tp2087
a(I-50
I-66
tp2088
a(I-50
I-65
tp2089
a(I-50
I-64
tp2090
a(I-49
I-66
tp2091
a(I-49
I-65
tp2092
a(I-49
I-64
tp2093
a(I-48
I-66
tp2094
a(I-48
I-65
tp2095
a(I-48
I-64
tp2096
a(I-47
I-66
tp2097
a(I-47
I-65
tp2098
a(I-47
I-64
tp2099
a(I-46
I-66
tp2100
a(I-46
I-65
tp2101
a(I-46
I-64
tp2102
a(I-45
I-66
tp2103
a(I-45
I-65
tp2104
a(I-45
I-64
tp2105
a(I-44
I-66
tp2106
a(I-44
I-65
tp2107
a(I-44
I-64
tp2108
a(I-43
I-66
tp2109
a(I-43
I-65
tp2110
a(I-43
I-64
tp2111
a(I-42
I-66
tp2112
a(I-42
I-65
tp2113
a(I-42
I-64
tp2114
a(I-41
I-66
tp2115
a(I-41
I-65
tp2116
a(I-41
I-64
tp2117
a(I-40
I-66
tp2118
a(I-40
I-65
tp2119
a(I-40
I-64
tp2120
a(I-40
I-68
tp2121
a(I-39
I-68
tp2122
a(I-40
I-67
tp2123
a(I-39
I-67
tp2124
a(I-40
I-66
tp2125
a(I-39
I-66
tp2126
a(I-40
I-65
tp2127
a(I-39
I-65
tp2128
a(I-40
I-64
tp2129
a(I-39
I-64
tp2130
a(I-49
I41
tp2131
a(I-49
I42
tp2132
a(I-48
I41
tp2133
a(I-48
I42
tp2134
a(I-47
I41
tp2135
a(I-47
I42
tp2136
a(I-46
I41
tp2137
a(I-46
I42
tp2138
a(I-45
I41
tp2139
a(I-45
I42
tp2140
a(I-44
I41
tp2141
a(I-44
I42
tp2142
a(I-43
I41
tp2143
a(I-43
I42
tp2144
a(I-42
I41
tp2145
a(I-42
I42
tp2146
a(I-41
I41
tp2147
a(I-41
I42
tp2148
a(I-40
I41
tp2149
a(I-40
I42
tp2150
a(I-39
I41
tp2151
a(I-39
I42
tp2152
a(I-38
I41
tp2153
a(I-38
I42
tp2154
a(I-37
I41
tp2155
a(I-37
I42
tp2156
a(I-36
I41
tp2157
a(I-36
I42
tp2158
a(I-35
I41
tp2159
a(I-35
I42
tp2160
a(I-34
I41
tp2161
a(I-34
I42
tp2162
a(I-33
I41
tp2163
a(I-33
I42
tp2164
a(I-32
I41
tp2165
a(I-32
I42
tp2166
a(I-31
I41
tp2167
a(I-31
I42
tp2168
a(I-30
I41
tp2169
a(I-30
I42
tp2170
a(I-29
I41
tp2171
a(I-29
I42
tp2172
a(I-28
I41
tp2173
a(I-28
I42
tp2174
a(I-27
I41
tp2175
a(I-27
I42
tp2176
a(I-26
I41
tp2177
a(I-26
I42
tp2178
a(I-25
I41
tp2179
a(I-25
I42
tp2180
a(I-24
I41
tp2181
a(I-24
I42
tp2182
a(I-23
I41
tp2183
a(I-23
I42
tp2184
a(I-22
I41
tp2185
a(I-22
I42
tp2186
a(I-21
I41
tp2187
a(I-21
I42
tp2188
a(I-20
I41
tp2189
a(I-20
I42
tp2190
a(I-19
I41
tp2191
a(I-19
I42
tp2192
a(I-18
I41
tp2193
a(I-18
I42
tp2194
a(I-17
I41
tp2195
a(I-17
I42
tp2196
a(I-16
I41
tp2197
a(I-16
I42
tp2198
a(I-15
I41
tp2199
a(I-15
I42
tp2200
a(I-14
I41
tp2201
a(I-14
I42
tp2202
a(I-13
I41
tp2203
a(I-13
I42
tp2204
a(I-12
I41
tp2205
a(I-12
I42
tp2206
a(I-11
I41
tp2207
a(I-11
I42
tp2208
a(I-10
I41
tp2209
a(I-10
I42
tp2210
a(I-9
I41
tp2211
a(I-9
I42
tp2212
a(I-8
I41
tp2213
a(I-8
I42
tp2214
a(I-7
I41
tp2215
a(I-7
I42
tp2216
a(I-37
I-66
tp2217
a(I-37
I-65
tp2218
a(I-36
I-66
tp2219
a(I-36
I-65
tp2220
a(I-35
I-66
tp2221
a(I-35
I-65
tp2222
a(I-36
I-66
tp2223
a(I-36
I-65
tp2224
a(I-36
I-64
tp2225
a(I-36
I-63
tp2226
a(I-36
I-62
tp2227
a(I-36
I-61
tp2228
a(I-36
I-60
tp2229
a(I-36
I-59
tp2230
a(I-36
I-58
tp2231
a(I-36
I-57
tp2232
a(I-36
I-56
tp2233
a(I-36
I-55
tp2234
a(I-36
I-54
tp2235
a(I-36
I-53
tp2236
a(I-36
I-52
tp2237
a(I-36
I-51
tp2238
a(I-36
I-50
tp2239
a(I-36
I-49
tp2240
a(I-36
I-48
tp2241
a(I-36
I-47
tp2242
a(I-36
I-46
tp2243
a(I-36
I-45
tp2244
a(I-36
I-44
tp2245
a(I-36
I-43
tp2246
a(I-36
I-42
tp2247
a(I-36
I-41
tp2248
a(I-36
I-40
tp2249
a(I-36
I-39
tp2250
a(I-16
I-41
tp2251
a(I-16
I-40
tp2252
a(I-16
I-39
tp2253
a(I-16
I-41
tp2254
a(I-16
I-40
tp2255
a(I-15
I-41
tp2256
a(I-15
I-40
tp2257
a(I-14
I-41
tp2258
a(I-14
I-40
tp2259
a(I-13
I-41
tp2260
a(I-13
I-40
tp2261
a(I-12
I-41
tp2262
a(I-12
I-40
tp2263
a(I-11
I-41
tp2264
a(I-11
I-40
tp2265
a(I-10
I-41
tp2266
a(I-10
I-40
tp2267
a(I-9
I-41
tp2268
a(I-9
I-40
tp2269
a(I-8
I-41
tp2270
a(I-8
I-40
tp2271
a(I-7
I-41
tp2272
a(I-7
I-40
tp2273
a(I-6
I-41
tp2274
a(I-6
I-40
tp2275
a(I-5
I-41
tp2276
a(I-5
I-40
tp2277
a(I-4
I-41
tp2278
a(I-4
I-40
tp2279
a(I-3
I-41
tp2280
a(I-3
I-40
tp2281
a(I-2
I-41
tp2282
a(I-2
I-40
tp2283
a(I-1
I-41
tp2284
a(I-1
I-40
tp2285
a(I0
I-41
tp2286
a(I0
I-40
tp2287
a(I1
I-41
tp2288
a(I1
I-40
tp2289
a(I2
I-41
tp2290
a(I2
I-40
tp2291
a(I3
I-41
tp2292
a(I3
I-40
tp2293
a(I4
I-41
tp2294
a(I4
I-40
tp2295
a(I5
I-41
tp2296
a(I5
I-40
tp2297
a(I6
I-41
tp2298
a(I6
I-40
tp2299
a(I7
I-41
tp2300
a(I7
I-40
tp2301
a(I8
I-41
tp2302
a(I8
I-40
tp2303
a(I9
I-41
tp2304
a(I9
I-40
tp2305
a(I10
I-41
tp2306
a(I10
I-40
tp2307
a(I11
I-41
tp2308
a(I11
I-40
tp2309
a(I12
I-41
tp2310
a(I12
I-40
tp2311
a(I13
I-41
tp2312
a(I13
I-40
tp2313
a(I14
I-41
tp2314
a(I14
I-40
tp2315
a(I15
I-41
tp2316
a(I15
I-40
tp2317
a(I16
I-41
tp2318
a(I16
I-40
tp2319
a(I17
I-41
tp2320
a(I17
I-40
tp2321
a(I18
I-41
tp2322
a(I18
I-40
tp2323
a(I-32
I-68
tp2324
a(I-32
I-67
tp2325
a(I-32
I-66
tp2326
a(I-32
I-65
tp2327
a(I-32
I-64
tp2328
a(I-32
I-66
tp2329
a(I-32
I-65
tp2330
a(I-31
I-66
tp2331
a(I-31
I-65
tp2332
a(I-30
I-66
tp2333
a(I-30
I-65
tp2334
a(I-29
I-66
tp2335
a(I-29
I-65
tp2336
a(I-28
I-66
tp2337
a(I-28
I-65
tp2338
a(I-27
I-66
tp2339
a(I-27
I-65
tp2340
a(I-26
I-66
tp2341
a(I-26
I-65
tp2342
a(I-25
I-66
tp2343
a(I-25
I-65
tp2344
a(I-24
I-66
tp2345
a(I-24
I-65
tp2346
a(I-23
I-66
tp2347
a(I-23
I-65
tp2348
a(I-22
I-66
tp2349
a(I-22
I-65
tp2350
a(I-21
I-66
tp2351
a(I-21
I-65
tp2352
a(I-20
I-66
tp2353
a(I-20
I-65
tp2354
a(I-19
I-66
tp2355
a(I-19
I-65
tp2356
a(I-18
I-66
tp2357
a(I-18
I-65
tp2358
a(I-17
I-66
tp2359
a(I-17
I-65
tp2360
a(I-16
I-66
tp2361
a(I-16
I-65
tp2362
a(I-15
I-66
tp2363
a(I-15
I-65
tp2364
a(I-14
I-66
tp2365
a(I-14
I-65
tp2366
a(I-13
I-66
tp2367
a(I-13
I-65
tp2368
a(I-12
I-66
tp2369
a(I-12
I-65
tp2370
a(I-11
I-66
tp2371
a(I-11
I-65
tp2372
a(I-10
I-66
tp2373
a(I-10
I-65
tp2374
a(I-9
I-66
tp2375
a(I-9
I-65
tp2376
a(I-8
I-66
tp2377
a(I-8
I-65
tp2378
a(I-7
I-66
tp2379
a(I-7
I-65
tp2380
a(I-7
I-68
tp2381
a(I-7
I-67
tp2382
a(I-7
I-66
tp2383
a(I-7
I-65
tp2384
a(I-7
I-64
tp2385
a(I-3
I-66
tp2386
a(I-3
I-65
tp2387
a(I-3
I-64
tp2388
a(I-3
I-63
tp2389
a(I-3
I-62
tp2390
a(I-3
I-61
tp2391
a(I-3
I-60
tp2392
a(I-3
I-59
tp2393
a(I-3
I-58
tp2394
a(I-3
I-57
tp2395
a(I-3
I-56
tp2396
a(I-3
I-55
tp2397
a(I-3
I-54
tp2398
a(I-3
I-53
tp2399
a(I-3
I-52
tp2400
a(I-3
I-51
tp2401
a(I-3
I-50
tp2402
a(I-3
I-49
tp2403
a(I-3
I-48
tp2404
a(I-3
I-47
tp2405
a(I-3
I-46
tp2406
a(I-3
I-45
tp2407
a(I-3
I-44
tp2408
a(I-3
I-43
tp2409
a(I-3
I-42
tp2410
a(I-3
I-41
tp2411
a(I-3
I-40
tp2412
a(I9
I-63
tp2413
a(I9
I-62
tp2414
a(I9
I-61
tp2415
a(I9
I-60
tp2416
a(I9
I-59
tp2417
a(I9
I-58
tp2418
a(I9
I-57
tp2419
a(I9
I-56
tp2420
a(I9
I-55
tp2421
a(I9
I-54
tp2422
a(I9
I-53
tp2423
a(I9
I-52
tp2424
a(I9
I-51
tp2425
a(I9
I-50
tp2426
a(I9
I-49
tp2427
a(I9
I-48
tp2428
a(I9
I-47
tp2429
a(I9
I-46
tp2430
a(I9
I-45
tp2431
a(I9
I-44
tp2432
a(I9
I-43
tp2433
a(I9
I-42
tp2434
a(I9
I-41
tp2435
a(I9
I-40
tp2436
a(I9
I-39
tp2437
a(I4
I-63
tp2438
a(I4
I-62
tp2439
a(I5
I-63
tp2440
a(I5
I-62
tp2441
a(I6
I-63
tp2442
a(I6
I-62
tp2443
a(I7
I-63
tp2444
a(I7
I-62
tp2445
a(I8
I-63
tp2446
a(I8
I-62
tp2447
a(I9
I-63
tp2448
a(I9
I-62
tp2449
a(I-7
I41
tp2450
a(I-7
I42
tp2451
a(I-6
I41
tp2452
a(I-6
I42
tp2453
a(I-5
I41
tp2454
a(I-5
I42
tp2455
a(I-4
I41
tp2456
a(I-4
I42
tp2457
a(I-3
I41
tp2458
a(I-3
I42
tp2459
a(I-2
I41
tp2460
a(I-2
I42
tp2461
a(I-1
I41
tp2462
a(I-1
I42
tp2463
a(I0
I41
tp2464
a(I0
I42
tp2465
a(I1
I41
tp2466
a(I1
I42
tp2467
a(I2
I41
tp2468
a(I2
I42
tp2469
a(I3
I41
tp2470
a(I3
I42
tp2471
a(I4
I41
tp2472
a(I4
I42
tp2473
a(I5
I41
tp2474
a(I5
I42
tp2475
a(I6
I41
tp2476
a(I6
I42
tp2477
a(I7
I41
tp2478
a(I7
I42
tp2479
a(I9
I-63
tp2480
a(I9
I-62
tp2481
a(I10
I-63
tp2482
a(I10
I-62
tp2483
a(I11
I-63
tp2484
a(I11
I-62
tp2485
a(I12
I-63
tp2486
a(I12
I-62
tp2487
a(I13
I-63
tp2488
a(I13
I-62
tp2489
a(I0
I-67
tp2490
a(I0
I-66
tp2491
a(I1
I-67
tp2492
a(I1
I-66
tp2493
a(I2
I-67
tp2494
a(I2
I-66
tp2495
a(I3
I-67
tp2496
a(I3
I-66
tp2497
a(I4
I-67
tp2498
a(I4
I-66
tp2499
a(I0
I-67
tp2500
a(I0
I-66
tp2501
a(I0
I-65
tp2502
a(I0
I-64
tp2503
a(I0
I-63
tp2504
a(I0
I-62
tp2505
a(I0
I-61
tp2506
a(I0
I-60
tp2507
a(I0
I-59
tp2508
a(I0
I-58
tp2509
a(I0
I-57
tp2510
a(I-3
I-59
tp2511
a(I-3
I-58
tp2512
a(I-3
I-57
tp2513
a(I-2
I-59
tp2514
a(I-2
I-58
tp2515
a(I-2
I-57
tp2516
a(I-1
I-59
tp2517
a(I-1
I-58
tp2518
a(I-1
I-57
tp2519
a(I0
I-59
tp2520
a(I0
I-58
tp2521
a(I0
I-57
tp2522
a(I-3
I-66
tp2523
a(I-3
I-65
tp2524
a(I-2
I-66
tp2525
a(I-2
I-65
tp2526
a(I0
I-58
tp2527
a(I0
I-57
tp2528
a(I0
I-56
tp2529
a(I0
I-55
tp2530
a(I0
I-54
tp2531
a(I0
I-53
tp2532
a(I0
I-52
tp2533
a(I0
I-51
tp2534
a(I0
I-50
tp2535
a(I0
I-49
tp2536
a(I0
I-48
tp2537
a(I0
I-47
tp2538
a(I0
I-46
tp2539
a(I0
I-45
tp2540
a(I0
I-44
tp2541
a(I0
I-43
tp2542
a(I0
I-42
tp2543
a(I0
I-41
tp2544
a(I0
I-40
tp2545
a(I-84
I40
tp2546
a(I-83
I40
tp2547
a(I-84
I41
tp2548
a(I-83
I41
tp2549
a(I-84
I42
tp2550
a(I-83
I42
tp2551
a(I-84
I43
tp2552
a(I-83
I43
tp2553
a(I-84
I44
tp2554
a(I-83
I44
tp2555
a(I-84
I45
tp2556
a(I-83
I45
tp2557
a(I-84
I46
tp2558
a(I-83
I46
tp2559
a(I-84
I47
tp2560
a(I-83
I47
tp2561
a(I-84
I48
tp2562
a(I-83
I48
tp2563
a(I-84
I49
tp2564
a(I-83
I49
tp2565
a(I-84
I50
tp2566
a(I-83
I50
tp2567
a(I-84
I51
tp2568
a(I-83
I51
tp2569
a(I-84
I52
tp2570
a(I-83
I52
tp2571
a(I-84
I53
tp2572
a(I-83
I53
tp2573
a(I-84
I54
tp2574
a(I-83
I54
tp2575
a(I-84
I55
tp2576
a(I-83
I55
tp2577
a(I-84
I56
tp2578
a(I-83
I56
tp2579
a(I-84
I57
tp2580
a(I-83
I57
tp2581
a(I-84
I58
tp2582
a(I-83
I58
tp2583
a(I-84
I59
tp2584
a(I-83
I59
tp2585
a(I-84
I60
tp2586
a(I-83
I60
tp2587
a(I-84
I61
tp2588
a(I-83
I61
tp2589
a(I-84
I62
tp2590
a(I-83
I62
tp2591
a(I-84
I63
tp2592
a(I-83
I63
tp2593
a(I-84
I64
tp2594
a(I-83
I64
tp2595
a(I-84
I65
tp2596
a(I-83
I65
tp2597
a(I-84
I66
tp2598
a(I-83
I66
tp2599
a(I-84
I67
tp2600
a(I-83
I67
tp2601
a(I-84
I68
tp2602
a(I-83
I68
tp2603
a(I18
I-67
tp2604
a(I18
I-66
tp2605
a(I18
I-65
tp2606
a(I18
I-64
tp2607
a(I18
I-63
tp2608
a(I18
I-62
tp2609
a(I18
I-61
tp2610
a(I18
I-60
tp2611
a(I18
I-59
tp2612
a(I18
I-58
tp2613
a(I18
I-57
tp2614
a(I18
I-56
tp2615
a(I18
I-55
tp2616
a(I18
I-54
tp2617
a(I18
I-53
tp2618
a(I18
I-52
tp2619
a(I18
I-51
tp2620
a(I18
I-50
tp2621
a(I18
I-49
tp2622
a(I18
I-48
tp2623
a(I18
I-47
tp2624
a(I18
I-46
tp2625
a(I18
I-45
tp2626
a(I18
I-44
tp2627
a(I18
I-43
tp2628
a(I18
I-42
tp2629
a(I18
I-41
tp2630
a(I18
I-40
tp2631
a(I13
I-67
tp2632
a(I13
I-66
tp2633
a(I14
I-67
tp2634
a(I14
I-66
tp2635
a(I15
I-67
tp2636
a(I15
I-66
tp2637
a(I16
I-67
tp2638
a(I16
I-66
tp2639
a(I17
I-67
tp2640
a(I17
I-66
tp2641
a(I18
I-67
tp2642
a(I18
I-66
tp2643
a(I14
I41
tp2644
a(I14
I42
tp2645
a(I15
I41
tp2646
a(I15
I42
tp2647
a(I16
I41
tp2648
a(I16
I42
tp2649
a(I17
I41
tp2650
a(I17
I42
tp2651
a(I18
I41
tp2652
a(I18
I42
tp2653
a(I19
I41
tp2654
a(I19
I42
tp2655
a(I20
I41
tp2656
a(I20
I42
tp2657
a(I21
I41
tp2658
a(I21
I42
tp2659
a(I22
I41
tp2660
a(I22
I42
tp2661
a(I23
I41
tp2662
a(I23
I42
tp2663
a(I24
I41
tp2664
a(I24
I42
tp2665
a(I25
I41
tp2666
a(I25
I42
tp2667
a(I26
I41
tp2668
a(I26
I42
tp2669
a(I27
I41
tp2670
a(I27
I42
tp2671
a(I28
I41
tp2672
a(I28
I42
tp2673
a(I29
I41
tp2674
a(I29
I42
tp2675
a(I30
I41
tp2676
a(I30
I42
tp2677
a(I31
I41
tp2678
a(I31
I42
tp2679
a(I32
I41
tp2680
a(I32
I42
tp2681
a(I33
I41
tp2682
a(I33
I42
tp2683
a(I34
I41
tp2684
a(I34
I42
tp2685
a(I35
I41
tp2686
a(I35
I42
tp2687
a(I36
I41
tp2688
a(I36
I42
tp2689
a(I37
I41
tp2690
a(I37
I42
tp2691
a(I38
I41
tp2692
a(I38
I42
tp2693
a(I39
I41
tp2694
a(I39
I42
tp2695
a(I40
I41
tp2696
a(I40
I42
tp2697
a(I41
I41
tp2698
a(I41
I42
tp2699
a(I42
I41
tp2700
a(I42
I42
tp2701
a(I43
I41
tp2702
a(I43
I42
tp2703
a(I44
I41
tp2704
a(I44
I42
tp2705
a(I45
I41
tp2706
a(I45
I42
tp2707
a(I27
I-20
tp2708
a(I27
I-19
tp2709
a(I28
I-20
tp2710
a(I28
I-19
tp2711
a(I29
I-20
tp2712
a(I29
I-19
tp2713
a(I30
I-20
tp2714
a(I30
I-19
tp2715
a(I31
I-20
tp2716
a(I31
I-19
tp2717
a(I32
I-20
tp2718
a(I32
I-19
tp2719
a(I33
I-20
tp2720
a(I33
I-19
tp2721
a(I34
I-20
tp2722
a(I34
I-19
tp2723
a(I34
I-69
tp2724
a(I34
I-68
tp2725
a(I34
I-67
tp2726
a(I34
I-66
tp2727
a(I34
I-65
tp2728
a(I34
I-64
tp2729
a(I34
I-63
tp2730
a(I34
I-62
tp2731
a(I34
I-61
tp2732
a(I34
I-60
tp2733
a(I34
I-59
tp2734
a(I34
I-58
tp2735
a(I34
I-57
tp2736
a(I34
I-56
tp2737
a(I34
I-55
tp2738
a(I34
I-54
tp2739
a(I34
I-53
tp2740
a(I34
I-52
tp2741
a(I34
I-51
tp2742
a(I34
I-50
tp2743
a(I34
I-49
tp2744
a(I34
I-48
tp2745
a(I34
I-47
tp2746
a(I34
I-46
tp2747
a(I34
I-45
tp2748
a(I34
I-44
tp2749
a(I34
I-43
tp2750
a(I34
I-42
tp2751
a(I34
I-41
tp2752
a(I34
I-40
tp2753
a(I34
I-39
tp2754
a(I34
I-38
tp2755
a(I34
I-37
tp2756
a(I34
I-36
tp2757
a(I34
I-35
tp2758
a(I34
I-34
tp2759
a(I34
I-33
tp2760
a(I34
I-32
tp2761
a(I34
I-31
tp2762
a(I34
I-30
tp2763
a(I34
I-29
tp2764
a(I34
I-28
tp2765
a(I34
I-27
tp2766
a(I34
I-26
tp2767
a(I34
I-25
tp2768
a(I34
I-24
tp2769
a(I34
I-23
tp2770
a(I34
I-22
tp2771
a(I34
I-21
tp2772
a(I34
I-20
tp2773
a(I34
I-19
tp2774
a(I27
I-70
tp2775
a(I27
I-69
tp2776
a(I27
I-68
tp2777
a(I28
I-70
tp2778
a(I28
I-69
tp2779
a(I28
I-68
tp2780
a(I29
I-70
tp2781
a(I29
I-69
tp2782
a(I29
I-68
tp2783
a(I30
I-70
tp2784
a(I30
I-69
tp2785
a(I30
I-68
tp2786
a(I31
I-70
tp2787
a(I31
I-69
tp2788
a(I31
I-68
tp2789
a(I32
I-70
tp2790
a(I32
I-69
tp2791
a(I32
I-68
tp2792
a(I33
I-70
tp2793
a(I33
I-69
tp2794
a(I33
I-68
tp2795
a(I34
I-70
tp2796
a(I34
I-69
tp2797
a(I34
I-68
tp2798
a(I27
I-70
tp2799
a(I27
I-69
tp2800
a(I27
I-68
tp2801
a(I27
I-66
tp2802
a(I27
I-65
tp2803
a(I27
I-64
tp2804
a(I27
I-63
tp2805
a(I27
I-62
tp2806
a(I27
I-61
tp2807
a(I27
I-60
tp2808
a(I27
I-59
tp2809
a(I27
I-58
tp2810
a(I27
I-57
tp2811
a(I27
I-56
tp2812
a(I27
I-55
tp2813
a(I27
I-54
tp2814
a(I27
I-53
tp2815
a(I27
I-52
tp2816
a(I27
I-51
tp2817
a(I27
I-50
tp2818
a(I27
I-49
tp2819
a(I27
I-48
tp2820
a(I27
I-47
tp2821
a(I27
I-46
tp2822
a(I27
I-45
tp2823
a(I27
I-44
tp2824
a(I27
I-43
tp2825
a(I27
I-42
tp2826
a(I27
I-41
tp2827
a(I27
I-40
tp2828
a(I27
I-39
tp2829
a(I27
I-38
tp2830
a(I27
I-37
tp2831
a(I27
I-36
tp2832
a(I27
I-35
tp2833
a(I27
I-34
tp2834
a(I27
I-33
tp2835
a(I27
I-32
tp2836
a(I27
I-31
tp2837
a(I27
I-30
tp2838
a(I27
I-29
tp2839
a(I27
I-28
tp2840
a(I27
I-27
tp2841
a(I27
I-26
tp2842
a(I27
I-25
tp2843
a(I27
I-24
tp2844
a(I27
I-23
tp2845
a(I27
I-22
tp2846
a(I27
I-21
tp2847
a(I27
I-20
tp2848
a(I27
I-19
tp2849
a(I27
I-55
tp2850
a(I27
I-54
tp2851
a(I28
I-55
tp2852
a(I28
I-54
tp2853
a(I29
I-55
tp2854
a(I29
I-54
tp2855
a(I30
I-55
tp2856
a(I30
I-54
tp2857
a(I31
I-55
tp2858
a(I31
I-54
tp2859
a(I32
I-55
tp2860
a(I32
I-54
tp2861
a(I33
I-55
tp2862
a(I33
I-54
tp2863
a(I34
I-55
tp2864
a(I34
I-54
tp2865
a(I27
I-48
tp2866
a(I27
I-47
tp2867
a(I28
I-48
tp2868
a(I28
I-47
tp2869
a(I29
I-48
tp2870
a(I29
I-47
tp2871
a(I30
I-48
tp2872
a(I30
I-47
tp2873
a(I31
I-48
tp2874
a(I31
I-47
tp2875
a(I32
I-48
tp2876
a(I32
I-47
tp2877
a(I33
I-48
tp2878
a(I33
I-47
tp2879
a(I34
I-48
tp2880
a(I34
I-47
tp2881
a(I27
I-42
tp2882
a(I27
I-41
tp2883
a(I28
I-42
tp2884
a(I28
I-41
tp2885
a(I29
I-42
tp2886
a(I29
I-41
tp2887
a(I30
I-42
tp2888
a(I30
I-41
tp2889
a(I31
I-42
tp2890
a(I31
I-41
tp2891
a(I32
I-42
tp2892
a(I32
I-41
tp2893
a(I33
I-42
tp2894
a(I33
I-41
tp2895
a(I34
I-42
tp2896
a(I34
I-41
tp2897
a(I27
I-36
tp2898
a(I27
I-35
tp2899
a(I28
I-36
tp2900
a(I28
I-35
tp2901
a(I29
I-36
tp2902
a(I29
I-35
tp2903
a(I30
I-36
tp2904
a(I30
I-35
tp2905
a(I31
I-36
tp2906
a(I31
I-35
tp2907
a(I32
I-36
tp2908
a(I32
I-35
tp2909
a(I33
I-36
tp2910
a(I33
I-35
tp2911
a(I34
I-36
tp2912
a(I34
I-35
tp2913
a(I27
I-29
tp2914
a(I27
I-28
tp2915
a(I28
I-29
tp2916
a(I28
I-28
tp2917
a(I29
I-29
tp2918
a(I29
I-28
tp2919
a(I30
I-29
tp2920
a(I30
I-28
tp2921
a(I31
I-29
tp2922
a(I31
I-28
tp2923
a(I32
I-29
tp2924
a(I32
I-28
tp2925
a(I33
I-29
tp2926
a(I33
I-28
tp2927
a(I34
I-29
tp2928
a(I34
I-28
tp2929
a(I40
I-22
tp2930
a(I40
I-21
tp2931
a(I41
I-22
tp2932
a(I41
I-21
tp2933
a(I42
I-22
tp2934
a(I42
I-21
tp2935
a(I43
I-22
tp2936
a(I43
I-21
tp2937
a(I44
I-22
tp2938
a(I44
I-21
tp2939
a(I45
I-22
tp2940
a(I45
I-21
tp2941
a(I46
I-22
tp2942
a(I46
I-21
tp2943
a(I47
I-22
tp2944
a(I47
I-21
tp2945
a(I48
I-22
tp2946
a(I48
I-21
tp2947
a(I49
I-22
tp2948
a(I49
I-21
tp2949
a(I50
I-22
tp2950
a(I50
I-21
tp2951
a(I51
I-22
tp2952
a(I51
I-21
tp2953
a(I52
I-22
tp2954
a(I52
I-21
tp2955
a(I53
I-22
tp2956
a(I53
I-21
tp2957
a(I54
I-22
tp2958
a(I54
I-21
tp2959
a(I55
I-22
tp2960
a(I55
I-21
tp2961
a(I56
I-22
tp2962
a(I56
I-21
tp2963
a(I57
I-22
tp2964
a(I57
I-21
tp2965
a(I58
I-22
tp2966
a(I58
I-21
tp2967
a(I59
I-22
tp2968
a(I59
I-21
tp2969
a(I60
I-22
tp2970
a(I60
I-21
tp2971
a(I61
I-22
tp2972
a(I61
I-21
tp2973
a(I62
I-22
tp2974
a(I62
I-21
tp2975
a(I63
I-22
tp2976
a(I63
I-21
tp2977
a(I64
I-22
tp2978
a(I64
I-21
tp2979
a(I65
I-22
tp2980
a(I65
I-21
tp2981
a(I66
I-22
tp2982
a(I66
I-21
tp2983
a(I67
I-22
tp2984
a(I67
I-21
tp2985
a(I68
I-22
tp2986
a(I68
I-21
tp2987
a(I73
I-22
tp2988
a(I73
I-21
tp2989
a(I74
I-22
tp2990
a(I74
I-21
tp2991
a(I75
I-22
tp2992
a(I75
I-21
tp2993
a(I76
I-22
tp2994
a(I76
I-21
tp2995
a(I77
I-22
tp2996
a(I77
I-21
tp2997
a(I78
I-22
tp2998
a(I78
I-21
tp2999
a(I79
I-22
tp3000
a(I79
I-21
tp3001
a(I80
I-22
tp3002
a(I80
I-21
tp3003
a(I81
I-22
tp3004
a(I81
I-21
tp3005
a(I82
I-22
tp3006
a(I82
I-21
tp3007
a(I83
I-22
tp3008
a(I83
I-21
tp3009
a(I83
I-74
tp3010
a(I83
I-73
tp3011
a(I83
I-72
tp3012
a(I83
I-71
tp3013
a(I83
I-70
tp3014
a(I83
I-69
tp3015
a(I83
I-68
tp3016
a(I83
I-67
tp3017
a(I83
I-66
tp3018
a(I83
I-65
tp3019
a(I83
I-64
tp3020
a(I83
I-63
tp3021
a(I83
I-62
tp3022
a(I83
I-61
tp3023
a(I83
I-60
tp3024
a(I83
I-59
tp3025
a(I83
I-58
tp3026
a(I83
I-57
tp3027
a(I83
I-56
tp3028
a(I83
I-55
tp3029
a(I83
I-54
tp3030
a(I83
I-53
tp3031
a(I83
I-52
tp3032
a(I83
I-51
tp3033
a(I83
I-50
tp3034
a(I83
I-49
tp3035
a(I83
I-48
tp3036
a(I83
I-47
tp3037
a(I83
I-46
tp3038
a(I83
I-45
tp3039
a(I83
I-44
tp3040
a(I83
I-43
tp3041
a(I83
I-42
tp3042
a(I83
I-41
tp3043
a(I83
I-40
tp3044
a(I83
I-39
tp3045
a(I83
I-38
tp3046
a(I83
I-37
tp3047
a(I83
I-36
tp3048
a(I83
I-35
tp3049
a(I83
I-34
tp3050
a(I83
I-33
tp3051
a(I83
I-32
tp3052
a(I83
I-31
tp3053
a(I83
I-30
tp3054
a(I83
I-29
tp3055
a(I83
I-28
tp3056
a(I83
I-27
tp3057
a(I83
I-26
tp3058
a(I83
I-25
tp3059
a(I83
I-24
tp3060
a(I83
I-23
tp3061
a(I83
I-22
tp3062
a(I83
I-21
tp3063
a(I40
I-66
tp3064
a(I40
I-65
tp3065
a(I41
I-66
tp3066
a(I41
I-65
tp3067
a(I42
I-66
tp3068
a(I42
I-65
tp3069
a(I43
I-66
tp3070
a(I43
I-65
tp3071
a(I44
I-66
tp3072
a(I44
I-65
tp3073
a(I45
I-66
tp3074
a(I45
I-65
tp3075
a(I46
I-66
tp3076
a(I46
I-65
tp3077
a(I46
I-68
tp3078
a(I46
I-67
tp3079
a(I47
I-68
tp3080
a(I47
I-67
tp3081
a(I48
I-68
tp3082
a(I48
I-67
tp3083
a(I49
I-68
tp3084
a(I49
I-67
tp3085
a(I50
I-68
tp3086
a(I50
I-67
tp3087
a(I51
I-68
tp3088
a(I51
I-67
tp3089
a(I52
I-68
tp3090
a(I52
I-67
tp3091
a(I52
I-70
tp3092
a(I52
I-69
tp3093
a(I53
I-70
tp3094
a(I53
I-69
tp3095
a(I54
I-70
tp3096
a(I54
I-69
tp3097
a(I55
I-70
tp3098
a(I55
I-69
tp3099
a(I56
I-70
tp3100
a(I56
I-69
tp3101
a(I57
I-70
tp3102
a(I57
I-69
tp3103
a(I58
I-70
tp3104
a(I58
I-69
tp3105
a(I59
I-68
tp3106
a(I59
I-67
tp3107
a(I60
I-68
tp3108
a(I60
I-67
tp3109
a(I61
I-68
tp3110
a(I61
I-67
tp3111
a(I62
I-68
tp3112
a(I62
I-67
tp3113
a(I63
I-68
tp3114
a(I63
I-67
tp3115
a(I64
I-68
tp3116
a(I64
I-67
tp3117
a(I65
I-68
tp3118
a(I65
I-67
tp3119
a(I65
I-69
tp3120
a(I65
I-68
tp3121
a(I66
I-69
tp3122
a(I66
I-68
tp3123
a(I67
I-69
tp3124
a(I67
I-68
tp3125
a(I68
I-69
tp3126
a(I68
I-68
tp3127
a(I69
I-69
tp3128
a(I69
I-68
tp3129
a(I70
I-69
tp3130
a(I70
I-68
tp3131
a(I71
I-69
tp3132
a(I71
I-68
tp3133
a(I72
I-70
tp3134
a(I72
I-69
tp3135
a(I73
I-70
tp3136
a(I73
I-69
tp3137
a(I74
I-70
tp3138
a(I74
I-69
tp3139
a(I75
I-70
tp3140
a(I75
I-69
tp3141
a(I76
I-70
tp3142
a(I76
I-69
tp3143
a(I77
I-70
tp3144
a(I77
I-69
tp3145
a(I78
I-70
tp3146
a(I78
I-69
tp3147
a(I40
I-30
tp3148
a(I40
I-29
tp3149
a(I41
I-30
tp3150
a(I41
I-29
tp3151
a(I42
I-30
tp3152
a(I42
I-29
tp3153
a(I43
I-30
tp3154
a(I43
I-29
tp3155
a(I44
I-30
tp3156
a(I44
I-29
tp3157
a(I45
I-30
tp3158
a(I45
I-29
tp3159
a(I46
I-30
tp3160
a(I46
I-29
tp3161
a(I46
I-28
tp3162
a(I46
I-27
tp3163
a(I47
I-28
tp3164
a(I47
I-27
tp3165
a(I48
I-28
tp3166
a(I48
I-27
tp3167
a(I49
I-28
tp3168
a(I49
I-27
tp3169
a(I50
I-28
tp3170
a(I50
I-27
tp3171
a(I51
I-28
tp3172
a(I51
I-27
tp3173
a(I52
I-28
tp3174
a(I52
I-27
tp3175
a(I42
I41
tp3176
a(I42
I42
tp3177
a(I42
I43
tp3178
a(I42
I44
tp3179
a(I42
I45
tp3180
a(I42
I46
tp3181
a(I42
I47
tp3182
a(I42
I48
tp3183
a(I42
I49
tp3184
a(I42
I50
tp3185
a(I42
I51
tp3186
a(I42
I52
tp3187
a(I42
I53
tp3188
a(I42
I54
tp3189
a(I42
I55
tp3190
a(I42
I56
tp3191
a(I42
I57
tp3192
a(I42
I58
tp3193
a(I42
I59
tp3194
a(I42
I60
tp3195
a(I42
I61
tp3196
a(I42
I62
tp3197
a(I42
I63
tp3198
a(I42
I64
tp3199
a(I42
I65
tp3200
a(I42
I66
tp3201
a(I42
I67
tp3202
a(I42
I68
tp3203
a(I42
I69
tp3204
a(I52
I-26
tp3205
a(I52
I-25
tp3206
a(I53
I-26
tp3207
a(I53
I-25
tp3208
a(I54
I-26
tp3209
a(I54
I-25
tp3210
a(I55
I-26
tp3211
a(I55
I-25
tp3212
a(I56
I-26
tp3213
a(I56
I-25
tp3214
a(I57
I-26
tp3215
a(I57
I-25
tp3216
a(I58
I-26
tp3217
a(I58
I-25
tp3218
a(I59
I-28
tp3219
a(I59
I-27
tp3220
a(I60
I-28
tp3221
a(I60
I-27
tp3222
a(I61
I-28
tp3223
a(I61
I-27
tp3224
a(I62
I-28
tp3225
a(I62
I-27
tp3226
a(I63
I-28
tp3227
a(I63
I-27
tp3228
a(I64
I-28
tp3229
a(I64
I-27
tp3230
a(I65
I-28
tp3231
a(I65
I-27
tp3232
a(I65
I-27
tp3233
a(I65
I-26
tp3234
a(I66
I-27
tp3235
a(I66
I-26
tp3236
a(I67
I-27
tp3237
a(I67
I-26
tp3238
a(I68
I-27
tp3239
a(I68
I-26
tp3240
a(I69
I-27
tp3241
a(I69
I-26
tp3242
a(I70
I-27
tp3243
a(I70
I-26
tp3244
a(I71
I-27
tp3245
a(I71
I-26
tp3246
a(I71
I-27
tp3247
a(I71
I-26
tp3248
a(I71
I-25
tp3249
a(I72
I-27
tp3250
a(I72
I-26
tp3251
a(I72
I-25
tp3252
a(I73
I-27
tp3253
a(I73
I-26
tp3254
a(I73
I-25
tp3255
a(I74
I-27
tp3256
a(I74
I-26
tp3257
a(I74
I-25
tp3258
a(I75
I-27
tp3259
a(I75
I-26
tp3260
a(I75
I-25
tp3261
a(I76
I-27
tp3262
a(I76
I-26
tp3263
a(I76
I-25
tp3264
a(I77
I-27
tp3265
a(I77
I-26
tp3266
a(I77
I-25
tp3267
a(I78
I-27
tp3268
a(I78
I-26
tp3269
a(I78
I-25
tp3270
a(I18
I-41
tp3271
a(I18
I-40
tp3272
a(I18
I-39
tp3273
a(I18
I-38
tp3274
a(I18
I-37
tp3275
a(I18
I-36
tp3276
a(I18
I-35
tp3277
a(I18
I-34
tp3278
a(I18
I-33
tp3279
a(I18
I-32
tp3280
a(I18
I-31
tp3281
a(I18
I-30
tp3282
a(I18
I-29
tp3283
a(I18
I-28
tp3284
a(I18
I-27
tp3285
a(I18
I-26
tp3286
a(I18
I-25
tp3287
a(I18
I-24
tp3288
a(I18
I-23
tp3289
a(I18
I-22
tp3290
a(I18
I-21
tp3291
a(I10
I68
tp3292
a(I10
I69
tp3293
a(I11
I68
tp3294
a(I11
I69
tp3295
a(I12
I68
tp3296
a(I12
I69
tp3297
a(I13
I68
tp3298
a(I13
I69
tp3299
a(I14
I68
tp3300
a(I14
I69
tp3301
a(I15
I68
tp3302
a(I15
I69
tp3303
a(I16
I68
tp3304
a(I16
I69
tp3305
a(I17
I68
tp3306
a(I17
I69
tp3307
a(I18
I68
tp3308
a(I18
I69
tp3309
a(I19
I68
tp3310
a(I19
I69
tp3311
a(I20
I68
tp3312
a(I20
I69
tp3313
a(I21
I68
tp3314
a(I21
I69
tp3315
a(I22
I68
tp3316
a(I22
I69
tp3317
a(I23
I68
tp3318
a(I23
I69
tp3319
a(I24
I68
tp3320
a(I24
I69
tp3321
a(I25
I68
tp3322
a(I25
I69
tp3323
a(I26
I68
tp3324
a(I26
I69
tp3325
a(I27
I68
tp3326
a(I27
I69
tp3327
a(I28
I68
tp3328
a(I28
I69
tp3329
a(I29
I68
tp3330
a(I29
I69
tp3331
a(I30
I68
tp3332
a(I30
I69
tp3333
a(I31
I68
tp3334
a(I31
I69
tp3335
a(I32
I68
tp3336
a(I32
I69
tp3337
a(I33
I68
tp3338
a(I33
I69
tp3339
a(I34
I68
tp3340
a(I34
I69
tp3341
a(I35
I68
tp3342
a(I35
I69
tp3343
a(I36
I68
tp3344
a(I36
I69
tp3345
a(I37
I68
tp3346
a(I37
I69
tp3347
a(I38
I68
tp3348
a(I38
I69
tp3349
a(I39
I68
tp3350
a(I39
I69
tp3351
a(I40
I68
tp3352
a(I40
I69
tp3353
a(I41
I68
tp3354
a(I41
I69
tp3355
a(I42
I68
tp3356
a(I42
I69
tp3357
a(I14
I-22
tp3358
a(I14
I-21
tp3359
a(I15
I-22
tp3360
a(I15
I-21
tp3361
a(I16
I-22
tp3362
a(I16
I-21
tp3363
a(I17
I-22
tp3364
a(I17
I-21
tp3365
a(I18
I-22
tp3366
a(I18
I-21
tp3367
a(I16
I-18
tp3368
a(I16
I-17
tp3369
a(I16
I-16
tp3370
a(I16
I-15
tp3371
a(I16
I-14
tp3372
a(I16
I-13
tp3373
a(I16
I-12
tp3374
a(I16
I-11
tp3375
a(I16
I-10
tp3376
a(I16
I-9
tp3377
a(I16
I-8
tp3378
a(I16
I-7
tp3379
a(I16
I-6
tp3380
a(I16
I-5
tp3381
a(I16
I-4
tp3382
a(I16
I-3
tp3383
a(I16
I-2
tp3384
a(I16
I-1
tp3385
a(I16
I0
tp3386
a(I16
I1
tp3387
a(I16
I2
tp3388
a(I16
I3
tp3389
a(I16
I4
tp3390
a(I16
I5
tp3391
a(I16
I6
tp3392
a(I16
I7
tp3393
a(I40
I0
tp3394
a(I40
I1
tp3395
a(I40
I2
tp3396
a(I40
I3
tp3397
a(I40
I4
tp3398
a(I40
I5
tp3399
a(I40
I6
tp3400
a(I41
I0
tp3401
a(I41
I1
tp3402
a(I42
I0
tp3403
a(I42
I1
tp3404
a(I43
I0
tp3405
a(I43
I1
tp3406
a(I44
I0
tp3407
a(I44
I1
tp3408
a(I45
I0
tp3409
a(I45
I1
tp3410
a(I46
I0
tp3411
a(I46
I1
tp3412
a(I47
I0
tp3413
a(I47
I1
tp3414
a(I48
I0
tp3415
a(I48
I1
tp3416
a(I49
I0
tp3417
a(I49
I1
tp3418
a(I50
I0
tp3419
a(I50
I1
tp3420
a(I51
I0
tp3421
a(I51
I1
tp3422
a(I52
I0
tp3423
a(I52
I1
tp3424
a(I53
I0
tp3425
a(I53
I1
tp3426
a(I54
I0
tp3427
a(I54
I1
tp3428
a(I55
I0
tp3429
a(I55
I1
tp3430
a(I56
I0
tp3431
a(I56
I1
tp3432
a(I57
I0
tp3433
a(I57
I1
tp3434
a(I58
I0
tp3435
a(I58
I1
tp3436
a(I59
I0
tp3437
a(I59
I1
tp3438
a(I60
I0
tp3439
a(I60
I1
tp3440
a(I60
I0
tp3441
a(I60
I1
tp3442
a(I60
I2
tp3443
a(I60
I3
tp3444
a(I60
I4
tp3445
a(I60
I5
tp3446
a(I60
I6
tp3447
a(I41
I5
tp3448
a(I41
I6
tp3449
a(I41
I7
tp3450
a(I42
I5
tp3451
a(I42
I6
tp3452
a(I42
I7
tp3453
a(I43
I5
tp3454
a(I43
I6
tp3455
a(I43
I7
tp3456
a(I44
I5
tp3457
a(I44
I6
tp3458
a(I44
I7
tp3459
a(I45
I5
tp3460
a(I45
I6
tp3461
a(I45
I7
tp3462
a(I46
I5
tp3463
a(I46
I6
tp3464
a(I46
I7
tp3465
a(I47
I5
tp3466
a(I47
I6
tp3467
a(I47
I7
tp3468
a(I48
I5
tp3469
a(I48
I6
tp3470
a(I48
I7
tp3471
a(I49
I5
tp3472
a(I49
I6
tp3473
a(I49
I7
tp3474
a(I50
I5
tp3475
a(I50
I6
tp3476
a(I50
I7
tp3477
a(I51
I5
tp3478
a(I51
I6
tp3479
a(I51
I7
tp3480
a(I52
I5
tp3481
a(I52
I6
tp3482
a(I52
I7
tp3483
a(I53
I5
tp3484
a(I53
I6
tp3485
a(I53
I7
tp3486
a(I54
I5
tp3487
a(I54
I6
tp3488
a(I54
I7
tp3489
a(I55
I5
tp3490
a(I55
I6
tp3491
a(I55
I7
tp3492
a(I56
I5
tp3493
a(I56
I6
tp3494
a(I56
I7
tp3495
a(I57
I5
tp3496
a(I57
I6
tp3497
a(I57
I7
tp3498
a(I58
I5
tp3499
a(I58
I6
tp3500
a(I58
I7
tp3501
a(I59
I5
tp3502
a(I59
I6
tp3503
a(I59
I7
tp3504
a(I60
I5
tp3505
a(I60
I6
tp3506
a(I60
I7
tp3507
a(I27
I9
tp3508
a(I27
I10
tp3509
a(I27
I11
tp3510
a(I28
I9
tp3511
a(I28
I10
tp3512
a(I28
I11
tp3513
a(I29
I9
tp3514
a(I29
I10
tp3515
a(I29
I11
tp3516
a(I30
I9
tp3517
a(I30
I10
tp3518
a(I30
I11
tp3519
a(I31
I9
tp3520
a(I31
I10
tp3521
a(I31
I11
tp3522
a(I32
I9
tp3523
a(I32
I10
tp3524
a(I32
I11
tp3525
a(I33
I9
tp3526
a(I33
I10
tp3527
a(I33
I11
tp3528
a(I34
I9
tp3529
a(I34
I10
tp3530
a(I34
I11
tp3531
a(I35
I9
tp3532
a(I35
I10
tp3533
a(I35
I11
tp3534
a(I36
I9
tp3535
a(I36
I10
tp3536
a(I36
I11
tp3537
a(I37
I9
tp3538
a(I37
I10
tp3539
a(I37
I11
tp3540
a(I38
I9
tp3541
a(I38
I10
tp3542
a(I38
I11
tp3543
a(I39
I9
tp3544
a(I39
I10
tp3545
a(I39
I11
tp3546
a(I40
I9
tp3547
a(I40
I10
tp3548
a(I40
I11
tp3549
a(I41
I9
tp3550
a(I41
I10
tp3551
a(I41
I11
tp3552
a(I42
I9
tp3553
a(I42
I10
tp3554
a(I42
I11
tp3555
a(I43
I9
tp3556
a(I43
I10
tp3557
a(I43
I11
tp3558
a(I44
I9
tp3559
a(I44
I10
tp3560
a(I44
I11
tp3561
a(I45
I9
tp3562
a(I45
I10
tp3563
a(I45
I11
tp3564
a(I46
I9
tp3565
a(I46
I10
tp3566
a(I46
I11
tp3567
a(I47
I9
tp3568
a(I47
I10
tp3569
a(I47
I11
tp3570
a(I48
I9
tp3571
a(I48
I10
tp3572
a(I48
I11
tp3573
a(I49
I9
tp3574
a(I49
I10
tp3575
a(I49
I11
tp3576
a(I50
I9
tp3577
a(I50
I10
tp3578
a(I50
I11
tp3579
a(I51
I9
tp3580
a(I51
I10
tp3581
a(I51
I11
tp3582
a(I52
I9
tp3583
a(I52
I10
tp3584
a(I52
I11
tp3585
a(I53
I9
tp3586
a(I53
I10
tp3587
a(I53
I11
tp3588
a(I54
I9
tp3589
a(I54
I10
tp3590
a(I54
I11
tp3591
a(I55
I9
tp3592
a(I55
I10
tp3593
a(I55
I11
tp3594
a(I56
I9
tp3595
a(I56
I10
tp3596
a(I56
I11
tp3597
a(I57
I9
tp3598
a(I57
I10
tp3599
a(I57
I11
tp3600
a(I58
I9
tp3601
a(I58
I10
tp3602
a(I58
I11
tp3603
a(I59
I9
tp3604
a(I59
I10
tp3605
a(I59
I11
tp3606
a(I60
I9
tp3607
a(I60
I10
tp3608
a(I60
I11
tp3609
a(I61
I9
tp3610
a(I61
I10
tp3611
a(I61
I11
tp3612
a(I62
I9
tp3613
a(I62
I10
tp3614
a(I62
I11
tp3615
a(I63
I9
tp3616
a(I63
I10
tp3617
a(I63
I11
tp3618
a(I64
I9
tp3619
a(I64
I10
tp3620
a(I64
I11
tp3621
a(I65
I9
tp3622
a(I65
I10
tp3623
a(I65
I11
tp3624
a(I66
I9
tp3625
a(I66
I10
tp3626
a(I66
I11
tp3627
a(I67
I9
tp3628
a(I67
I10
tp3629
a(I67
I11
tp3630
a(I68
I9
tp3631
a(I68
I10
tp3632
a(I68
I11
tp3633
a(I69
I9
tp3634
a(I69
I10
tp3635
a(I69
I11
tp3636
a(I70
I9
tp3637
a(I70
I10
tp3638
a(I70
I11
tp3639
a(I71
I9
tp3640
a(I71
I10
tp3641
a(I71
I11
tp3642
a(I72
I9
tp3643
a(I72
I10
tp3644
a(I72
I11
tp3645
a(I73
I9
tp3646
a(I73
I10
tp3647
a(I73
I11
tp3648
a(I73
I9
tp3649
a(I73
I10
tp3650
a(I73
I11
tp3651
a(I73
I12
tp3652
a(I73
I13
tp3653
a(I73
I14
tp3654
a(I73
I15
tp3655
a(I73
I16
tp3656
a(I73
I17
tp3657
a(I73
I18
tp3658
a(I73
I19
tp3659
a(I73
I20
tp3660
a(I73
I21
tp3661
a(I73
I22
tp3662
a(I73
I23
tp3663
a(I73
I24
tp3664
a(I73
I25
tp3665
a(I73
I26
tp3666
a(I26
I10
tp3667
a(I27
I10
tp3668
a(I26
I11
tp3669
a(I27
I11
tp3670
a(I26
I12
tp3671
a(I27
I12
tp3672
a(I26
I13
tp3673
a(I27
I13
tp3674
a(I26
I14
tp3675
a(I27
I14
tp3676
a(I26
I15
tp3677
a(I27
I15
tp3678
a(I26
I16
tp3679
a(I27
I16
tp3680
a(I26
I17
tp3681
a(I27
I17
tp3682
a(I26
I18
tp3683
a(I27
I18
tp3684
a(I26
I19
tp3685
a(I27
I19
tp3686
a(I26
I20
tp3687
a(I27
I20
tp3688
a(I26
I21
tp3689
a(I27
I21
tp3690
a(I26
I22
tp3691
a(I27
I22
tp3692
a(I26
I23
tp3693
a(I27
I23
tp3694
a(I26
I24
tp3695
a(I27
I24
tp3696
a(I26
I25
tp3697
a(I27
I25
tp3698
a(I26
I26
tp3699
a(I27
I26
tp3700
a(I26
I27
tp3701
a(I27
I27
tp3702
a(I26
I28
tp3703
a(I27
I28
tp3704
a(I26
I29
tp3705
a(I27
I29
tp3706
a(I26
I30
tp3707
a(I27
I30
tp3708
a(I26
I31
tp3709
a(I27
I31
tp3710
a(I26
I32
tp3711
a(I27
I32
tp3712
a(I26
I33
tp3713
a(I27
I33
tp3714
a(I26
I34
tp3715
a(I27
I34
tp3716
a(I26
I35
tp3717
a(I27
I35
tp3718
a(I26
I36
tp3719
a(I27
I36
tp3720
a(I26
I37
tp3721
a(I27
I37
tp3722
a(I26
I36
tp3723
a(I26
I37
tp3724
a(I27
I36
tp3725
a(I27
I37
tp3726
a(I28
I36
tp3727
a(I28
I37
tp3728
a(I29
I36
tp3729
a(I29
I37
tp3730
a(I30
I36
tp3731
a(I30
I37
tp3732
a(I31
I36
tp3733
a(I31
I37
tp3734
a(I32
I36
tp3735
a(I32
I37
tp3736
a(I33
I36
tp3737
a(I33
I37
tp3738
a(I34
I36
tp3739
a(I34
I37
tp3740
a(I35
I36
tp3741
a(I35
I37
tp3742
a(I36
I36
tp3743
a(I36
I37
tp3744
a(I37
I36
tp3745
a(I37
I37
tp3746
a(I38
I36
tp3747
a(I38
I37
tp3748
a(I39
I36
tp3749
a(I39
I37
tp3750
a(I40
I36
tp3751
a(I40
I37
tp3752
a(I41
I36
tp3753
a(I41
I37
tp3754
a(I42
I36
tp3755
a(I42
I37
tp3756
a(I43
I36
tp3757
a(I43
I37
tp3758
a(I44
I36
tp3759
a(I44
I37
tp3760
a(I45
I36
tp3761
a(I45
I37
tp3762
a(I46
I36
tp3763
a(I46
I37
tp3764
a(I47
I36
tp3765
a(I47
I37
tp3766
a(I48
I36
tp3767
a(I48
I37
tp3768
a(I49
I36
tp3769
a(I49
I37
tp3770
a(I50
I36
tp3771
a(I50
I37
tp3772
a(I51
I36
tp3773
a(I51
I37
tp3774
a(I52
I36
tp3775
a(I52
I37
tp3776
a(I53
I36
tp3777
a(I53
I37
tp3778
a(I54
I36
tp3779
a(I54
I37
tp3780
a(I55
I36
tp3781
a(I55
I37
tp3782
a(I56
I36
tp3783
a(I56
I37
tp3784
a(I57
I36
tp3785
a(I57
I37
tp3786
a(I58
I36
tp3787
a(I58
I37
tp3788
a(I59
I36
tp3789
a(I59
I37
tp3790
a(I60
I36
tp3791
a(I60
I37
tp3792
a(I61
I36
tp3793
a(I61
I37
tp3794
a(I62
I36
tp3795
a(I62
I37
tp3796
a(I63
I36
tp3797
a(I63
I37
tp3798
a(I64
I36
tp3799
a(I64
I37
tp3800
a(I65
I36
tp3801
a(I65
I37
tp3802
a(I66
I36
tp3803
a(I66
I37
tp3804
a(I67
I36
tp3805
a(I67
I37
tp3806
a(I68
I36
tp3807
a(I68
I37
tp3808
a(I69
I36
tp3809
a(I69
I37
tp3810
a(I70
I36
tp3811
a(I70
I37
tp3812
a(I71
I36
tp3813
a(I71
I37
tp3814
a(I72
I36
tp3815
a(I72
I37
tp3816
a(I73
I36
tp3817
a(I73
I37
tp3818
a(I73
I31
tp3819
a(I73
I32
tp3820
a(I73
I33
tp3821
a(I73
I34
tp3822
a(I73
I35
tp3823
a(I73
I36
tp3824
a(I73
I37
tp3825
a(I60
I14
tp3826
a(I60
I15
tp3827
a(I60
I16
tp3828
a(I60
I17
tp3829
a(I60
I18
tp3830
a(I60
I19
tp3831
a(I60
I20
tp3832
a(I60
I21
tp3833
a(I60
I22
tp3834
a(I60
I23
tp3835
a(I60
I24
tp3836
a(I60
I25
tp3837
a(I60
I26
tp3838
a(I60
I27
tp3839
a(I60
I28
tp3840
a(I60
I29
tp3841
a(I60
I30
tp3842
a(I60
I31
tp3843
a(I60
I32
tp3844
a(I60
I31
tp3845
a(I60
I32
tp3846
a(I61
I31
tp3847
a(I61
I32
tp3848
a(I62
I31
tp3849
a(I62
I32
tp3850
a(I63
I31
tp3851
a(I63
I32
tp3852
a(I64
I31
tp3853
a(I64
I32
tp3854
a(I65
I31
tp3855
a(I65
I32
tp3856
a(I66
I31
tp3857
a(I66
I32
tp3858
a(I67
I31
tp3859
a(I67
I32
tp3860
a(I68
I31
tp3861
a(I68
I32
tp3862
a(I69
I31
tp3863
a(I69
I32
tp3864
a(I70
I31
tp3865
a(I70
I32
tp3866
a(I71
I31
tp3867
a(I71
I32
tp3868
a(I72
I31
tp3869
a(I72
I32
tp3870
a(I73
I31
tp3871
a(I73
I32
tp3872
a(I-54
I68
tp3873
a(I-54
I69
tp3874
a(I-53
I68
tp3875
a(I-53
I69
tp3876
a(I-52
I68
tp3877
a(I-52
I69
tp3878
a(I-51
I68
tp3879
a(I-51
I69
tp3880
a(I-50
I68
tp3881
a(I-50
I69
tp3882
a(I-49
I68
tp3883
a(I-49
I69
tp3884
a(I-48
I68
tp3885
a(I-48
I69
tp3886
a(I-47
I68
tp3887
a(I-47
I69
tp3888
a(I-46
I68
tp3889
a(I-46
I69
tp3890
a(I-45
I68
tp3891
a(I-45
I69
tp3892
a(I-44
I68
tp3893
a(I-44
I69
tp3894
a(I-43
I68
tp3895
a(I-43
I69
tp3896
a(I-42
I68
tp3897
a(I-42
I69
tp3898
a(I-41
I68
tp3899
a(I-41
I69
tp3900
a(I-40
I68
tp3901
a(I-40
I69
tp3902
a(I-39
I68
tp3903
a(I-39
I69
tp3904
a(I-38
I68
tp3905
a(I-38
I69
tp3906
a(I-37
I68
tp3907
a(I-37
I69
tp3908
a(I-36
I68
tp3909
a(I-36
I69
tp3910
a(I-35
I68
tp3911
a(I-35
I69
tp3912
a(I-34
I68
tp3913
a(I-34
I69
tp3914
a(I-33
I68
tp3915
a(I-33
I69
tp3916
a(I-32
I68
tp3917
a(I-32
I69
tp3918
a(I-31
I68
tp3919
a(I-31
I69
tp3920
a(I-30
I68
tp3921
a(I-30
I69
tp3922
a(I-29
I68
tp3923
a(I-29
I69
tp3924
a(I-28
I68
tp3925
a(I-28
I69
tp3926
a(I-27
I68
tp3927
a(I-27
I69
tp3928
a(I-26
I68
tp3929
a(I-26
I69
tp3930
a(I-25
I68
tp3931
a(I-25
I69
tp3932
a(I-24
I68
tp3933
a(I-24
I69
tp3934
a(I-23
I68
tp3935
a(I-23
I69
tp3936
a(I-22
I68
tp3937
a(I-22
I69
tp3938
a(I-21
I68
tp3939
a(I-21
I69
tp3940
a(I-20
I68
tp3941
a(I-20
I69
tp3942
a(I-19
I68
tp3943
a(I-19
I69
tp3944
a(I-18
I68
tp3945
a(I-18
I69
tp3946
a(I-17
I68
tp3947
a(I-17
I69
tp3948
a(I-16
I68
tp3949
a(I-16
I69
tp3950
a(I-15
I68
tp3951
a(I-15
I69
tp3952
a(I-14
I68
tp3953
a(I-14
I69
tp3954
a(I-13
I68
tp3955
a(I-13
I69
tp3956
a(I-12
I68
tp3957
a(I-12
I69
tp3958
a(I-11
I68
tp3959
a(I-11
I69
tp3960
a(I-10
I68
tp3961
a(I-10
I69
tp3962
a(I-9
I68
tp3963
a(I-9
I69
tp3964
a(I-8
I68
tp3965
a(I-8
I69
tp3966
a(I-7
I68
tp3967
a(I-7
I69
tp3968
a(I-6
I68
tp3969
a(I-6
I69
tp3970
a(I-5
I68
tp3971
a(I-5
I69
tp3972
a(I-4
I68
tp3973
a(I-4
I69
tp3974
a(I-3
I68
tp3975
a(I-3
I69
tp3976
a(I-2
I68
tp3977
a(I-2
I69
tp3978
a(I-1
I68
tp3979
a(I-1
I69
tp3980
a(I0
I68
tp3981
a(I0
I69
tp3982
a(I1
I68
tp3983
a(I1
I69
tp3984
a(I2
I68
tp3985
a(I2
I69
tp3986
a(I3
I68
tp3987
a(I3
I69
tp3988
a(I4
I68
tp3989
a(I4
I69
tp3990
a(I5
I68
tp3991
a(I5
I69
tp3992
a(I6
I68
tp3993
a(I6
I69
tp3994
a(I7
I68
tp3995
a(I7
I69
tp3996
a(I8
I68
tp3997
a(I8
I69
tp3998
a(I9
I68
tp3999
a(I9
I69
tp4000
a(I10
I68
tp4001
a(I10
I69
tp4002
a(I11
I68
tp4003
a(I11
I69
tp4004
a(I12
I68
tp4005
a(I12
I69
tp4006
a(I13
I68
tp4007
a(I13
I69
tp4008
a(I14
I68
tp4009
a(I14
I69
tp4010
a(I-89
I68
tp4011
a(I-89
I69
tp4012
a(I-89
I70
tp4013
a(I-89
I71
tp4014
a(I-89
I72
tp4015
a(I-89
I73
tp4016
a(I-89
I74
tp4017
a(I-89
I75
tp4018
a(I-89
I76
tp4019
a(I-89
I77
tp4020
a(I-89
I78
tp4021
a(I-89
I79
tp4022
a(I-88
I68
tp4023
a(I-88
I69
tp4024
a(I-88
I70
tp4025
a(I-88
I71
tp4026
a(I-88
I72
tp4027
a(I-88
I73
tp4028
a(I-88
I74
tp4029
a(I-88
I75
tp4030
a(I-88
I76
tp4031
a(I-88
I77
tp4032
a(I-88
I78
tp4033
a(I-88
I79
tp4034
a(I-87
I68
tp4035
a(I-87
I69
tp4036
a(I-87
I70
tp4037
a(I-87
I71
tp4038
a(I-87
I72
tp4039
a(I-87
I73
tp4040
a(I-87
I74
tp4041
a(I-87
I75
tp4042
a(I-87
I76
tp4043
a(I-87
I77
tp4044
a(I-87
I78
tp4045
a(I-87
I79
tp4046
a(I-86
I68
tp4047
a(I-86
I69
tp4048
a(I-86
I70
tp4049
a(I-86
I71
tp4050
a(I-86
I72
tp4051
a(I-86
I73
tp4052
a(I-86
I74
tp4053
a(I-86
I75
tp4054
a(I-86
I76
tp4055
a(I-86
I77
tp4056
a(I-86
I78
tp4057
a(I-86
I79
tp4058
a(I-85
I68
tp4059
a(I-85
I69
tp4060
a(I-85
I70
tp4061
a(I-85
I71
tp4062
a(I-85
I72
tp4063
a(I-85
I73
tp4064
a(I-85
I74
tp4065
a(I-85
I75
tp4066
a(I-85
I76
tp4067
a(I-85
I77
tp4068
a(I-85
I78
tp4069
a(I-85
I79
tp4070
a(I-84
I68
tp4071
a(I-84
I69
tp4072
a(I-84
I70
tp4073
a(I-84
I71
tp4074
a(I-84
I72
tp4075
a(I-84
I73
tp4076
a(I-84
I74
tp4077
a(I-84
I75
tp4078
a(I-84
I76
tp4079
a(I-84
I77
tp4080
a(I-84
I78
tp4081
a(I-84
I79
tp4082
a(I-83
I68
tp4083
a(I-83
I69
tp4084
a(I-83
I70
tp4085
a(I-83
I71
tp4086
a(I-83
I72
tp4087
a(I-83
I73
tp4088
a(I-83
I74
tp4089
a(I-83
I75
tp4090
a(I-83
I76
tp4091
a(I-83
I77
tp4092
a(I-83
I78
tp4093
a(I-83
I79
tp4094
a(I-82
I68
tp4095
a(I-82
I69
tp4096
a(I-82
I70
tp4097
a(I-82
I71
tp4098
a(I-82
I72
tp4099
a(I-82
I73
tp4100
a(I-82
I74
tp4101
a(I-82
I75
tp4102
a(I-82
I76
tp4103
a(I-82
I77
tp4104
a(I-82
I78
tp4105
a(I-82
I79
tp4106
a(I-81
I68
tp4107
a(I-81
I69
tp4108
a(I-81
I70
tp4109
a(I-81
I71
tp4110
a(I-81
I72
tp4111
a(I-81
I73
tp4112
a(I-81
I74
tp4113
a(I-81
I75
tp4114
a(I-81
I76
tp4115
a(I-81
I77
tp4116
a(I-81
I78
tp4117
a(I-81
I79
tp4118
a(I-80
I68
tp4119
a(I-80
I69
tp4120
a(I-80
I70
tp4121
a(I-80
I71
tp4122
a(I-80
I72
tp4123
a(I-80
I73
tp4124
a(I-80
I74
tp4125
a(I-80
I75
tp4126
a(I-80
I76
tp4127
a(I-80
I77
tp4128
a(I-80
I78
tp4129
a(I-80
I79
tp4130
a(I-79
I68
tp4131
a(I-79
I69
tp4132
a(I-79
I70
tp4133
a(I-79
I71
tp4134
a(I-79
I72
tp4135
a(I-79
I73
tp4136
a(I-79
I74
tp4137
a(I-79
I75
tp4138
a(I-79
I76
tp4139
a(I-79
I77
tp4140
a(I-79
I78
tp4141
a(I-79
I79
tp4142
a(I-78
I68
tp4143
a(I-78
I69
tp4144
a(I-78
I70
tp4145
a(I-78
I71
tp4146
a(I-78
I72
tp4147
a(I-78
I73
tp4148
a(I-78
I74
tp4149
a(I-78
I75
tp4150
a(I-78
I76
tp4151
a(I-78
I77
tp4152
a(I-78
I78
tp4153
a(I-78
I79
tp4154
a(I-77
I68
tp4155
a(I-77
I69
tp4156
a(I-77
I70
tp4157
a(I-77
I71
tp4158
a(I-77
I72
tp4159
a(I-77
I73
tp4160
a(I-77
I74
tp4161
a(I-77
I75
tp4162
a(I-77
I76
tp4163
a(I-77
I77
tp4164
a(I-77
I78
tp4165
a(I-77
I79
tp4166
a(I-76
I68
tp4167
a(I-76
I69
tp4168
a(I-76
I70
tp4169
a(I-76
I71
tp4170
a(I-76
I72
tp4171
a(I-76
I73
tp4172
a(I-76
I74
tp4173
a(I-76
I75
tp4174
a(I-76
I76
tp4175
a(I-76
I77
tp4176
a(I-76
I78
tp4177
a(I-76
I79
tp4178
a(I-75
I68
tp4179
a(I-75
I69
tp4180
a(I-75
I70
tp4181
a(I-75
I71
tp4182
a(I-75
I72
tp4183
a(I-75
I73
tp4184
a(I-75
I74
tp4185
a(I-75
I75
tp4186
a(I-75
I76
tp4187
a(I-75
I77
tp4188
a(I-75
I78
tp4189
a(I-75
I79
tp4190
a(I-74
I68
tp4191
a(I-74
I69
tp4192
a(I-74
I70
tp4193
a(I-74
I71
tp4194
a(I-74
I72
tp4195
a(I-74
I73
tp4196
a(I-74
I74
tp4197
a(I-74
I75
tp4198
a(I-74
I76
tp4199
a(I-74
I77
tp4200
a(I-74
I78
tp4201
a(I-74
I79
tp4202
a(I-73
I68
tp4203
a(I-73
I69
tp4204
a(I-73
I70
tp4205
a(I-73
I71
tp4206
a(I-73
I72
tp4207
a(I-73
I73
tp4208
a(I-73
I74
tp4209
a(I-73
I75
tp4210
a(I-73
I76
tp4211
a(I-73
I77
tp4212
a(I-73
I78
tp4213
a(I-73
I79
tp4214
a(I-72
I68
tp4215
a(I-72
I69
tp4216
a(I-72
I70
tp4217
a(I-72
I71
tp4218
a(I-72
I72
tp4219
a(I-72
I73
tp4220
a(I-72
I74
tp4221
a(I-72
I75
tp4222
a(I-72
I76
tp4223
a(I-72
I77
tp4224
a(I-72
I78
tp4225
a(I-72
I79
tp4226
a(I-71
I68
tp4227
a(I-71
I69
tp4228
a(I-71
I70
tp4229
a(I-71
I71
tp4230
a(I-71
I72
tp4231
a(I-71
I73
tp4232
a(I-71
I74
tp4233
a(I-71
I75
tp4234
a(I-71
I76
tp4235
a(I-71
I77
tp4236
a(I-71
I78
tp4237
a(I-71
I79
tp4238
a(I-70
I68
tp4239
a(I-70
I69
tp4240
a(I-70
I70
tp4241
a(I-70
I71
tp4242
a(I-70
I72
tp4243
a(I-70
I73
tp4244
a(I-70
I74
tp4245
a(I-70
I75
tp4246
a(I-70
I76
tp4247
a(I-70
I77
tp4248
a(I-70
I78
tp4249
a(I-70
I79
tp4250
a(I-69
I68
tp4251
a(I-69
I69
tp4252
a(I-69
I70
tp4253
a(I-69
I71
tp4254
a(I-69
I72
tp4255
a(I-69
I73
tp4256
a(I-69
I74
tp4257
a(I-69
I75
tp4258
a(I-69
I76
tp4259
a(I-69
I77
tp4260
a(I-69
I78
tp4261
a(I-69
I79
tp4262
a(I-68
I68
tp4263
a(I-68
I69
tp4264
a(I-68
I70
tp4265
a(I-68
I71
tp4266
a(I-68
I72
tp4267
a(I-68
I73
tp4268
a(I-68
I74
tp4269
a(I-68
I75
tp4270
a(I-68
I76
tp4271
a(I-68
I77
tp4272
a(I-68
I78
tp4273
a(I-68
I79
tp4274
a(I-67
I68
tp4275
a(I-67
I69
tp4276
a(I-67
I70
tp4277
a(I-67
I71
tp4278
a(I-67
I72
tp4279
a(I-67
I73
tp4280
a(I-67
I74
tp4281
a(I-67
I75
tp4282
a(I-67
I76
tp4283
a(I-67
I77
tp4284
a(I-67
I78
tp4285
a(I-67
I79
tp4286
a(I-66
I68
tp4287
a(I-66
I69
tp4288
a(I-66
I70
tp4289
a(I-66
I71
tp4290
a(I-66
I72
tp4291
a(I-66
I73
tp4292
a(I-66
I74
tp4293
a(I-66
I75
tp4294
a(I-66
I76
tp4295
a(I-66
I77
tp4296
a(I-66
I78
tp4297
a(I-66
I79
tp4298
a(I-65
I68
tp4299
a(I-65
I69
tp4300
a(I-65
I70
tp4301
a(I-65
I71
tp4302
a(I-65
I72
tp4303
a(I-65
I73
tp4304
a(I-65
I74
tp4305
a(I-65
I75
tp4306
a(I-65
I76
tp4307
a(I-65
I77
tp4308
a(I-65
I78
tp4309
a(I-65
I79
tp4310
a(I-64
I68
tp4311
a(I-64
I69
tp4312
a(I-64
I70
tp4313
a(I-64
I71
tp4314
a(I-64
I72
tp4315
a(I-64
I73
tp4316
a(I-64
I74
tp4317
a(I-64
I75
tp4318
a(I-64
I76
tp4319
a(I-64
I77
tp4320
a(I-64
I78
tp4321
a(I-64
I79
tp4322
a(I-63
I68
tp4323
a(I-63
I69
tp4324
a(I-63
I70
tp4325
a(I-63
I71
tp4326
a(I-63
I72
tp4327
a(I-63
I73
tp4328
a(I-63
I74
tp4329
a(I-63
I75
tp4330
a(I-63
I76
tp4331
a(I-63
I77
tp4332
a(I-63
I78
tp4333
a(I-63
I79
tp4334
a(I-62
I68
tp4335
a(I-62
I69
tp4336
a(I-62
I70
tp4337
a(I-62
I71
tp4338
a(I-62
I72
tp4339
a(I-62
I73
tp4340
a(I-62
I74
tp4341
a(I-62
I75
tp4342
a(I-62
I76
tp4343
a(I-62
I77
tp4344
a(I-62
I78
tp4345
a(I-62
I79
tp4346
a(I-61
I68
tp4347
a(I-61
I69
tp4348
a(I-61
I70
tp4349
a(I-61
I71
tp4350
a(I-61
I72
tp4351
a(I-61
I73
tp4352
a(I-61
I74
tp4353
a(I-61
I75
tp4354
a(I-61
I76
tp4355
a(I-61
I77
tp4356
a(I-61
I78
tp4357
a(I-61
I79
tp4358
a(I-60
I68
tp4359
a(I-60
I69
tp4360
a(I-60
I70
tp4361
a(I-60
I71
tp4362
a(I-60
I72
tp4363
a(I-60
I73
tp4364
a(I-60
I74
tp4365
a(I-60
I75
tp4366
a(I-60
I76
tp4367
a(I-60
I77
tp4368
a(I-60
I78
tp4369
a(I-60
I79
tp4370
a(I-59
I68
tp4371
a(I-59
I69
tp4372
a(I-59
I70
tp4373
a(I-59
I71
tp4374
a(I-59
I72
tp4375
a(I-59
I73
tp4376
a(I-59
I74
tp4377
a(I-59
I75
tp4378
a(I-59
I76
tp4379
a(I-59
I77
tp4380
a(I-59
I78
tp4381
a(I-59
I79
tp4382
a(I-58
I68
tp4383
a(I-58
I69
tp4384
a(I-58
I70
tp4385
a(I-58
I71
tp4386
a(I-58
I72
tp4387
a(I-58
I73
tp4388
a(I-58
I74
tp4389
a(I-58
I75
tp4390
a(I-58
I76
tp4391
a(I-58
I77
tp4392
a(I-58
I78
tp4393
a(I-58
I79
tp4394
a(I-57
I68
tp4395
a(I-57
I69
tp4396
a(I-57
I70
tp4397
a(I-57
I71
tp4398
a(I-57
I72
tp4399
a(I-57
I73
tp4400
a(I-57
I74
tp4401
a(I-57
I75
tp4402
a(I-57
I76
tp4403
a(I-57
I77
tp4404
a(I-57
I78
tp4405
a(I-57
I79
tp4406
a(I-56
I68
tp4407
a(I-56
I69
tp4408
a(I-56
I70
tp4409
a(I-56
I71
tp4410
a(I-56
I72
tp4411
a(I-56
I73
tp4412
a(I-56
I74
tp4413
a(I-56
I75
tp4414
a(I-56
I76
tp4415
a(I-56
I77
tp4416
a(I-56
I78
tp4417
a(I-56
I79
tp4418
a(I-55
I68
tp4419
a(I-55
I69
tp4420
a(I-55
I70
tp4421
a(I-55
I71
tp4422
a(I-55
I72
tp4423
a(I-55
I73
tp4424
a(I-55
I74
tp4425
a(I-55
I75
tp4426
a(I-55
I76
tp4427
a(I-55
I77
tp4428
a(I-55
I78
tp4429
a(I-55
I79
tp4430
a(I-54
I68
tp4431
a(I-54
I69
tp4432
a(I-54
I70
tp4433
a(I-54
I71
tp4434
a(I-54
I72
tp4435
a(I-54
I73
tp4436
a(I-54
I74
tp4437
a(I-54
I75
tp4438
a(I-54
I76
tp4439
a(I-54
I77
tp4440
a(I-54
I78
tp4441
a(I-54
I79
tp4442
a(I-53
I68
tp4443
a(I-53
I69
tp4444
a(I-53
I70
tp4445
a(I-53
I71
tp4446
a(I-53
I72
tp4447
a(I-53
I73
tp4448
a(I-53
I74
tp4449
a(I-53
I75
tp4450
a(I-53
I76
tp4451
a(I-53
I77
tp4452
a(I-53
I78
tp4453
a(I-53
I79
tp4454
a(I-52
I68
tp4455
a(I-52
I69
tp4456
a(I-52
I70
tp4457
a(I-52
I71
tp4458
a(I-52
I72
tp4459
a(I-52
I73
tp4460
a(I-52
I74
tp4461
a(I-52
I75
tp4462
a(I-52
I76
tp4463
a(I-52
I77
tp4464
a(I-52
I78
tp4465
a(I-52
I79
tp4466
a(I-51
I68
tp4467
a(I-51
I69
tp4468
a(I-51
I70
tp4469
a(I-51
I71
tp4470
a(I-51
I72
tp4471
a(I-51
I73
tp4472
a(I-51
I74
tp4473
a(I-51
I75
tp4474
a(I-51
I76
tp4475
a(I-51
I77
tp4476
a(I-51
I78
tp4477
a(I-51
I79
tp4478
a(I-50
I68
tp4479
a(I-50
I69
tp4480
a(I-50
I70
tp4481
a(I-50
I71
tp4482
a(I-50
I72
tp4483
a(I-50
I73
tp4484
a(I-50
I74
tp4485
a(I-50
I75
tp4486
a(I-50
I76
tp4487
a(I-50
I77
tp4488
a(I-50
I78
tp4489
a(I-50
I79
tp4490
a(I-49
I68
tp4491
a(I-49
I69
tp4492
a(I-49
I70
tp4493
a(I-49
I71
tp4494
a(I-49
I72
tp4495
a(I-49
I73
tp4496
a(I-49
I74
tp4497
a(I-49
I75
tp4498
a(I-49
I76
tp4499
a(I-49
I77
tp4500
a(I-49
I78
tp4501
a(I-49
I79
tp4502
a(I-48
I68
tp4503
a(I-48
I69
tp4504
a(I-48
I70
tp4505
a(I-48
I71
tp4506
a(I-48
I72
tp4507
a(I-48
I73
tp4508
a(I-48
I74
tp4509
a(I-48
I75
tp4510
a(I-48
I76
tp4511
a(I-48
I77
tp4512
a(I-48
I78
tp4513
a(I-48
I79
tp4514
a(I-47
I68
tp4515
a(I-47
I69
tp4516
a(I-47
I70
tp4517
a(I-47
I71
tp4518
a(I-47
I72
tp4519
a(I-47
I73
tp4520
a(I-47
I74
tp4521
a(I-47
I75
tp4522
a(I-47
I76
tp4523
a(I-47
I77
tp4524
a(I-47
I78
tp4525
a(I-47
I79
tp4526
a(I-46
I68
tp4527
a(I-46
I69
tp4528
a(I-46
I70
tp4529
a(I-46
I71
tp4530
a(I-46
I72
tp4531
a(I-46
I73
tp4532
a(I-46
I74
tp4533
a(I-46
I75
tp4534
a(I-46
I76
tp4535
a(I-46
I77
tp4536
a(I-46
I78
tp4537
a(I-46
I79
tp4538
a(I-45
I68
tp4539
a(I-45
I69
tp4540
a(I-45
I70
tp4541
a(I-45
I71
tp4542
a(I-45
I72
tp4543
a(I-45
I73
tp4544
a(I-45
I74
tp4545
a(I-45
I75
tp4546
a(I-45
I76
tp4547
a(I-45
I77
tp4548
a(I-45
I78
tp4549
a(I-45
I79
tp4550
a(I-44
I68
tp4551
a(I-44
I69
tp4552
a(I-44
I70
tp4553
a(I-44
I71
tp4554
a(I-44
I72
tp4555
a(I-44
I73
tp4556
a(I-44
I74
tp4557
a(I-44
I75
tp4558
a(I-44
I76
tp4559
a(I-44
I77
tp4560
a(I-44
I78
tp4561
a(I-44
I79
tp4562
a(I-43
I68
tp4563
a(I-43
I69
tp4564
a(I-43
I70
tp4565
a(I-43
I71
tp4566
a(I-43
I72
tp4567
a(I-43
I73
tp4568
a(I-43
I74
tp4569
a(I-43
I75
tp4570
a(I-43
I76
tp4571
a(I-43
I77
tp4572
a(I-43
I78
tp4573
a(I-43
I79
tp4574
a(I-42
I68
tp4575
a(I-42
I69
tp4576
a(I-42
I70
tp4577
a(I-42
I71
tp4578
a(I-42
I72
tp4579
a(I-42
I73
tp4580
a(I-42
I74
tp4581
a(I-42
I75
tp4582
a(I-42
I76
tp4583
a(I-42
I77
tp4584
a(I-42
I78
tp4585
a(I-42
I79
tp4586
a(I-41
I68
tp4587
a(I-41
I69
tp4588
a(I-41
I70
tp4589
a(I-41
I71
tp4590
a(I-41
I72
tp4591
a(I-41
I73
tp4592
a(I-41
I74
tp4593
a(I-41
I75
tp4594
a(I-41
I76
tp4595
a(I-41
I77
tp4596
a(I-41
I78
tp4597
a(I-41
I79
tp4598
a(I-40
I68
tp4599
a(I-40
I69
tp4600
a(I-40
I70
tp4601
a(I-40
I71
tp4602
a(I-40
I72
tp4603
a(I-40
I73
tp4604
a(I-40
I74
tp4605
a(I-40
I75
tp4606
a(I-40
I76
tp4607
a(I-40
I77
tp4608
a(I-40
I78
tp4609
a(I-40
I79
tp4610
a(I-39
I68
tp4611
a(I-39
I69
tp4612
a(I-39
I70
tp4613
a(I-39
I71
tp4614
a(I-39
I72
tp4615
a(I-39
I73
tp4616
a(I-39
I74
tp4617
a(I-39
I75
tp4618
a(I-39
I76
tp4619
a(I-39
I77
tp4620
a(I-39
I78
tp4621
a(I-39
I79
tp4622
a(I-38
I68
tp4623
a(I-38
I69
tp4624
a(I-38
I70
tp4625
a(I-38
I71
tp4626
a(I-38
I72
tp4627
a(I-38
I73
tp4628
a(I-38
I74
tp4629
a(I-38
I75
tp4630
a(I-38
I76
tp4631
a(I-38
I77
tp4632
a(I-38
I78
tp4633
a(I-38
I79
tp4634
a(I-37
I68
tp4635
a(I-37
I69
tp4636
a(I-37
I70
tp4637
a(I-37
I71
tp4638
a(I-37
I72
tp4639
a(I-37
I73
tp4640
a(I-37
I74
tp4641
a(I-37
I75
tp4642
a(I-37
I76
tp4643
a(I-37
I77
tp4644
a(I-37
I78
tp4645
a(I-37
I79
tp4646
a(I-36
I68
tp4647
a(I-36
I69
tp4648
a(I-36
I70
tp4649
a(I-36
I71
tp4650
a(I-36
I72
tp4651
a(I-36
I73
tp4652
a(I-36
I74
tp4653
a(I-36
I75
tp4654
a(I-36
I76
tp4655
a(I-36
I77
tp4656
a(I-36
I78
tp4657
a(I-36
I79
tp4658
a(I-35
I68
tp4659
a(I-35
I69
tp4660
a(I-35
I70
tp4661
a(I-35
I71
tp4662
a(I-35
I72
tp4663
a(I-35
I73
tp4664
a(I-35
I74
tp4665
a(I-35
I75
tp4666
a(I-35
I76
tp4667
a(I-35
I77
tp4668
a(I-35
I78
tp4669
a(I-35
I79
tp4670
a(I-34
I68
tp4671
a(I-34
I69
tp4672
a(I-34
I70
tp4673
a(I-34
I71
tp4674
a(I-34
I72
tp4675
a(I-34
I73
tp4676
a(I-34
I74
tp4677
a(I-34
I75
tp4678
a(I-34
I76
tp4679
a(I-34
I77
tp4680
a(I-34
I78
tp4681
a(I-34
I79
tp4682
a(I-33
I68
tp4683
a(I-33
I69
tp4684
a(I-33
I70
tp4685
a(I-33
I71
tp4686
a(I-33
I72
tp4687
a(I-33
I73
tp4688
a(I-33
I74
tp4689
a(I-33
I75
tp4690
a(I-33
I76
tp4691
a(I-33
I77
tp4692
a(I-33
I78
tp4693
a(I-33
I79
tp4694
a(I-32
I68
tp4695
a(I-32
I69
tp4696
a(I-32
I70
tp4697
a(I-32
I71
tp4698
a(I-32
I72
tp4699
a(I-32
I73
tp4700
a(I-32
I74
tp4701
a(I-32
I75
tp4702
a(I-32
I76
tp4703
a(I-32
I77
tp4704
a(I-32
I78
tp4705
a(I-32
I79
tp4706
a(I-31
I68
tp4707
a(I-31
I69
tp4708
a(I-31
I70
tp4709
a(I-31
I71
tp4710
a(I-31
I72
tp4711
a(I-31
I73
tp4712
a(I-31
I74
tp4713
a(I-31
I75
tp4714
a(I-31
I76
tp4715
a(I-31
I77
tp4716
a(I-31
I78
tp4717
a(I-31
I79
tp4718
a(I-30
I68
tp4719
a(I-30
I69
tp4720
a(I-30
I70
tp4721
a(I-30
I71
tp4722
a(I-30
I72
tp4723
a(I-30
I73
tp4724
a(I-30
I74
tp4725
a(I-30
I75
tp4726
a(I-30
I76
tp4727
a(I-30
I77
tp4728
a(I-30
I78
tp4729
a(I-30
I79
tp4730
a(I-29
I68
tp4731
a(I-29
I69
tp4732
a(I-29
I70
tp4733
a(I-29
I71
tp4734
a(I-29
I72
tp4735
a(I-29
I73
tp4736
a(I-29
I74
tp4737
a(I-29
I75
tp4738
a(I-29
I76
tp4739
a(I-29
I77
tp4740
a(I-29
I78
tp4741
a(I-29
I79
tp4742
a(I-28
I68
tp4743
a(I-28
I69
tp4744
a(I-28
I70
tp4745
a(I-28
I71
tp4746
a(I-28
I72
tp4747
a(I-28
I73
tp4748
a(I-28
I74
tp4749
a(I-28
I75
tp4750
a(I-28
I76
tp4751
a(I-28
I77
tp4752
a(I-28
I78
tp4753
a(I-28
I79
tp4754
a(I-27
I68
tp4755
a(I-27
I69
tp4756
a(I-27
I70
tp4757
a(I-27
I71
tp4758
a(I-27
I72
tp4759
a(I-27
I73
tp4760
a(I-27
I74
tp4761
a(I-27
I75
tp4762
a(I-27
I76
tp4763
a(I-27
I77
tp4764
a(I-27
I78
tp4765
a(I-27
I79
tp4766
a(I-26
I68
tp4767
a(I-26
I69
tp4768
a(I-26
I70
tp4769
a(I-26
I71
tp4770
a(I-26
I72
tp4771
a(I-26
I73
tp4772
a(I-26
I74
tp4773
a(I-26
I75
tp4774
a(I-26
I76
tp4775
a(I-26
I77
tp4776
a(I-26
I78
tp4777
a(I-26
I79
tp4778
a(I-25
I68
tp4779
a(I-25
I69
tp4780
a(I-25
I70
tp4781
a(I-25
I71
tp4782
a(I-25
I72
tp4783
a(I-25
I73
tp4784
a(I-25
I74
tp4785
a(I-25
I75
tp4786
a(I-25
I76
tp4787
a(I-25
I77
tp4788
a(I-25
I78
tp4789
a(I-25
I79
tp4790
a(I-24
I68
tp4791
a(I-24
I69
tp4792
a(I-24
I70
tp4793
a(I-24
I71
tp4794
a(I-24
I72
tp4795
a(I-24
I73
tp4796
a(I-24
I74
tp4797
a(I-24
I75
tp4798
a(I-24
I76
tp4799
a(I-24
I77
tp4800
a(I-24
I78
tp4801
a(I-24
I79
tp4802
a(I-23
I68
tp4803
a(I-23
I69
tp4804
a(I-23
I70
tp4805
a(I-23
I71
tp4806
a(I-23
I72
tp4807
a(I-23
I73
tp4808
a(I-23
I74
tp4809
a(I-23
I75
tp4810
a(I-23
I76
tp4811
a(I-23
I77
tp4812
a(I-23
I78
tp4813
a(I-23
I79
tp4814
a(I-22
I68
tp4815
a(I-22
I69
tp4816
a(I-22
I70
tp4817
a(I-22
I71
tp4818
a(I-22
I72
tp4819
a(I-22
I73
tp4820
a(I-22
I74
tp4821
a(I-22
I75
tp4822
a(I-22
I76
tp4823
a(I-22
I77
tp4824
a(I-22
I78
tp4825
a(I-22
I79
tp4826
a(I-21
I68
tp4827
a(I-21
I69
tp4828
a(I-21
I70
tp4829
a(I-21
I71
tp4830
a(I-21
I72
tp4831
a(I-21
I73
tp4832
a(I-21
I74
tp4833
a(I-21
I75
tp4834
a(I-21
I76
tp4835
a(I-21
I77
tp4836
a(I-21
I78
tp4837
a(I-21
I79
tp4838
a(I-20
I68
tp4839
a(I-20
I69
tp4840
a(I-20
I70
tp4841
a(I-20
I71
tp4842
a(I-20
I72
tp4843
a(I-20
I73
tp4844
a(I-20
I74
tp4845
a(I-20
I75
tp4846
a(I-20
I76
tp4847
a(I-20
I77
tp4848
a(I-20
I78
tp4849
a(I-20
I79
tp4850
a(I-19
I68
tp4851
a(I-19
I69
tp4852
a(I-19
I70
tp4853
a(I-19
I71
tp4854
a(I-19
I72
tp4855
a(I-19
I73
tp4856
a(I-19
I74
tp4857
a(I-19
I75
tp4858
a(I-19
I76
tp4859
a(I-19
I77
tp4860
a(I-19
I78
tp4861
a(I-19
I79
tp4862
a(I-18
I68
tp4863
a(I-18
I69
tp4864
a(I-18
I70
tp4865
a(I-18
I71
tp4866
a(I-18
I72
tp4867
a(I-18
I73
tp4868
a(I-18
I74
tp4869
a(I-18
I75
tp4870
a(I-18
I76
tp4871
a(I-18
I77
tp4872
a(I-18
I78
tp4873
a(I-18
I79
tp4874
a(I-17
I68
tp4875
a(I-17
I69
tp4876
a(I-17
I70
tp4877
a(I-17
I71
tp4878
a(I-17
I72
tp4879
a(I-17
I73
tp4880
a(I-17
I74
tp4881
a(I-17
I75
tp4882
a(I-17
I76
tp4883
a(I-17
I77
tp4884
a(I-17
I78
tp4885
a(I-17
I79
tp4886
a(I-16
I68
tp4887
a(I-16
I69
tp4888
a(I-16
I70
tp4889
a(I-16
I71
tp4890
a(I-16
I72
tp4891
a(I-16
I73
tp4892
a(I-16
I74
tp4893
a(I-16
I75
tp4894
a(I-16
I76
tp4895
a(I-16
I77
tp4896
a(I-16
I78
tp4897
a(I-16
I79
tp4898
a(I-15
I68
tp4899
a(I-15
I69
tp4900
a(I-15
I70
tp4901
a(I-15
I71
tp4902
a(I-15
I72
tp4903
a(I-15
I73
tp4904
a(I-15
I74
tp4905
a(I-15
I75
tp4906
a(I-15
I76
tp4907
a(I-15
I77
tp4908
a(I-15
I78
tp4909
a(I-15
I79
tp4910
a(I-14
I68
tp4911
a(I-14
I69
tp4912
a(I-14
I70
tp4913
a(I-14
I71
tp4914
a(I-14
I72
tp4915
a(I-14
I73
tp4916
a(I-14
I74
tp4917
a(I-14
I75
tp4918
a(I-14
I76
tp4919
a(I-14
I77
tp4920
a(I-14
I78
tp4921
a(I-14
I79
tp4922
a(I-13
I68
tp4923
a(I-13
I69
tp4924
a(I-13
I70
tp4925
a(I-13
I71
tp4926
a(I-13
I72
tp4927
a(I-13
I73
tp4928
a(I-13
I74
tp4929
a(I-13
I75
tp4930
a(I-13
I76
tp4931
a(I-13
I77
tp4932
a(I-13
I78
tp4933
a(I-13
I79
tp4934
a(I-12
I68
tp4935
a(I-12
I69
tp4936
a(I-12
I70
tp4937
a(I-12
I71
tp4938
a(I-12
I72
tp4939
a(I-12
I73
tp4940
a(I-12
I74
tp4941
a(I-12
I75
tp4942
a(I-12
I76
tp4943
a(I-12
I77
tp4944
a(I-12
I78
tp4945
a(I-12
I79
tp4946
a(I-11
I68
tp4947
a(I-11
I69
tp4948
a(I-11
I70
tp4949
a(I-11
I71
tp4950
a(I-11
I72
tp4951
a(I-11
I73
tp4952
a(I-11
I74
tp4953
a(I-11
I75
tp4954
a(I-11
I76
tp4955
a(I-11
I77
tp4956
a(I-11
I78
tp4957
a(I-11
I79
tp4958
a(I-10
I68
tp4959
a(I-10
I69
tp4960
a(I-10
I70
tp4961
a(I-10
I71
tp4962
a(I-10
I72
tp4963
a(I-10
I73
tp4964
a(I-10
I74
tp4965
a(I-10
I75
tp4966
a(I-10
I76
tp4967
a(I-10
I77
tp4968
a(I-10
I78
tp4969
a(I-10
I79
tp4970
a(I-9
I68
tp4971
a(I-9
I69
tp4972
a(I-9
I70
tp4973
a(I-9
I71
tp4974
a(I-9
I72
tp4975
a(I-9
I73
tp4976
a(I-9
I74
tp4977
a(I-9
I75
tp4978
a(I-9
I76
tp4979
a(I-9
I77
tp4980
a(I-9
I78
tp4981
a(I-9
I79
tp4982
a(I-8
I68
tp4983
a(I-8
I69
tp4984
a(I-8
I70
tp4985
a(I-8
I71
tp4986
a(I-8
I72
tp4987
a(I-8
I73
tp4988
a(I-8
I74
tp4989
a(I-8
I75
tp4990
a(I-8
I76
tp4991
a(I-8
I77
tp4992
a(I-8
I78
tp4993
a(I-8
I79
tp4994
a(I-7
I68
tp4995
a(I-7
I69
tp4996
a(I-7
I70
tp4997
a(I-7
I71
tp4998
a(I-7
I72
tp4999
a(I-7
I73
tp5000
a(I-7
I74
tp5001
a(I-7
I75
tp5002
a(I-7
I76
tp5003
a(I-7
I77
tp5004
a(I-7
I78
tp5005
a(I-7
I79
tp5006
a(I-6
I68
tp5007
a(I-6
I69
tp5008
a(I-6
I70
tp5009
a(I-6
I71
tp5010
a(I-6
I72
tp5011
a(I-6
I73
tp5012
a(I-6
I74
tp5013
a(I-6
I75
tp5014
a(I-6
I76
tp5015
a(I-6
I77
tp5016
a(I-6
I78
tp5017
a(I-6
I79
tp5018
a(I-5
I68
tp5019
a(I-5
I69
tp5020
a(I-5
I70
tp5021
a(I-5
I71
tp5022
a(I-5
I72
tp5023
a(I-5
I73
tp5024
a(I-5
I74
tp5025
a(I-5
I75
tp5026
a(I-5
I76
tp5027
a(I-5
I77
tp5028
a(I-5
I78
tp5029
a(I-5
I79
tp5030
a(I-4
I68
tp5031
a(I-4
I69
tp5032
a(I-4
I70
tp5033
a(I-4
I71
tp5034
a(I-4
I72
tp5035
a(I-4
I73
tp5036
a(I-4
I74
tp5037
a(I-4
I75
tp5038
a(I-4
I76
tp5039
a(I-4
I77
tp5040
a(I-4
I78
tp5041
a(I-4
I79
tp5042
a(I-3
I68
tp5043
a(I-3
I69
tp5044
a(I-3
I70
tp5045
a(I-3
I71
tp5046
a(I-3
I72
tp5047
a(I-3
I73
tp5048
a(I-3
I74
tp5049
a(I-3
I75
tp5050
a(I-3
I76
tp5051
a(I-3
I77
tp5052
a(I-3
I78
tp5053
a(I-3
I79
tp5054
a(I-2
I68
tp5055
a(I-2
I69
tp5056
a(I-2
I70
tp5057
a(I-2
I71
tp5058
a(I-2
I72
tp5059
a(I-2
I73
tp5060
a(I-2
I74
tp5061
a(I-2
I75
tp5062
a(I-2
I76
tp5063
a(I-2
I77
tp5064
a(I-2
I78
tp5065
a(I-2
I79
tp5066
a(I-1
I68
tp5067
a(I-1
I69
tp5068
a(I-1
I70
tp5069
a(I-1
I71
tp5070
a(I-1
I72
tp5071
a(I-1
I73
tp5072
a(I-1
I74
tp5073
a(I-1
I75
tp5074
a(I-1
I76
tp5075
a(I-1
I77
tp5076
a(I-1
I78
tp5077
a(I-1
I79
tp5078
a(I0
I68
tp5079
a(I0
I69
tp5080
a(I0
I70
tp5081
a(I0
I71
tp5082
a(I0
I72
tp5083
a(I0
I73
tp5084
a(I0
I74
tp5085
a(I0
I75
tp5086
a(I0
I76
tp5087
a(I0
I77
tp5088
a(I0
I78
tp5089
a(I0
I79
tp5090
a(I1
I68
tp5091
a(I1
I69
tp5092
a(I1
I70
tp5093
a(I1
I71
tp5094
a(I1
I72
tp5095
a(I1
I73
tp5096
a(I1
I74
tp5097
a(I1
I75
tp5098
a(I1
I76
tp5099
a(I1
I77
tp5100
a(I1
I78
tp5101
a(I1
I79
tp5102
a(I2
I68
tp5103
a(I2
I69
tp5104
a(I2
I70
tp5105
a(I2
I71
tp5106
a(I2
I72
tp5107
a(I2
I73
tp5108
a(I2
I74
tp5109
a(I2
I75
tp5110
a(I2
I76
tp5111
a(I2
I77
tp5112
a(I2
I78
tp5113
a(I2
I79
tp5114
a(I3
I68
tp5115
a(I3
I69
tp5116
a(I3
I70
tp5117
a(I3
I71
tp5118
a(I3
I72
tp5119
a(I3
I73
tp5120
a(I3
I74
tp5121
a(I3
I75
tp5122
a(I3
I76
tp5123
a(I3
I77
tp5124
a(I3
I78
tp5125
a(I3
I79
tp5126
a(I4
I68
tp5127
a(I4
I69
tp5128
a(I4
I70
tp5129
a(I4
I71
tp5130
a(I4
I72
tp5131
a(I4
I73
tp5132
a(I4
I74
tp5133
a(I4
I75
tp5134
a(I4
I76
tp5135
a(I4
I77
tp5136
a(I4
I78
tp5137
a(I4
I79
tp5138
a(I5
I68
tp5139
a(I5
I69
tp5140
a(I5
I70
tp5141
a(I5
I71
tp5142
a(I5
I72
tp5143
a(I5
I73
tp5144
a(I5
I74
tp5145
a(I5
I75
tp5146
a(I5
I76
tp5147
a(I5
I77
tp5148
a(I5
I78
tp5149
a(I5
I79
tp5150
a(I6
I68
tp5151
a(I6
I69
tp5152
a(I6
I70
tp5153
a(I6
I71
tp5154
a(I6
I72
tp5155
a(I6
I73
tp5156
a(I6
I74
tp5157
a(I6
I75
tp5158
a(I6
I76
tp5159
a(I6
I77
tp5160
a(I6
I78
tp5161
a(I6
I79
tp5162
a(I7
I68
tp5163
a(I7
I69
tp5164
a(I7
I70
tp5165
a(I7
I71
tp5166
a(I7
I72
tp5167
a(I7
I73
tp5168
a(I7
I74
tp5169
a(I7
I75
tp5170
a(I7
I76
tp5171
a(I7
I77
tp5172
a(I7
I78
tp5173
a(I7
I79
tp5174
a(I8
I68
tp5175
a(I8
I69
tp5176
a(I8
I70
tp5177
a(I8
I71
tp5178
a(I8
I72
tp5179
a(I8
I73
tp5180
a(I8
I74
tp5181
a(I8
I75
tp5182
a(I8
I76
tp5183
a(I8
I77
tp5184
a(I8
I78
tp5185
a(I8
I79
tp5186
a(I9
I68
tp5187
a(I9
I69
tp5188
a(I9
I70
tp5189
a(I9
I71
tp5190
a(I9
I72
tp5191
a(I9
I73
tp5192
a(I9
I74
tp5193
a(I9
I75
tp5194
a(I9
I76
tp5195
a(I9
I77
tp5196
a(I9
I78
tp5197
a(I9
I79
tp5198
a(I10
I68
tp5199
a(I10
I69
tp5200
a(I10
I70
tp5201
a(I10
I71
tp5202
a(I10
I72
tp5203
a(I10
I73
tp5204
a(I10
I74
tp5205
a(I10
I75
tp5206
a(I10
I76
tp5207
a(I10
I77
tp5208
a(I10
I78
tp5209
a(I10
I79
tp5210
a(I11
I68
tp5211
a(I11
I69
tp5212
a(I11
I70
tp5213
a(I11
I71
tp5214
a(I11
I72
tp5215
a(I11
I73
tp5216
a(I11
I74
tp5217
a(I11
I75
tp5218
a(I11
I76
tp5219
a(I11
I77
tp5220
a(I11
I78
tp5221
a(I11
I79
tp5222
a(I12
I68
tp5223
a(I12
I69
tp5224
a(I12
I70
tp5225
a(I12
I71
tp5226
a(I12
I72
tp5227
a(I12
I73
tp5228
a(I12
I74
tp5229
a(I12
I75
tp5230
a(I12
I76
tp5231
a(I12
I77
tp5232
a(I12
I78
tp5233
a(I12
I79
tp5234
a(I13
I68
tp5235
a(I13
I69
tp5236
a(I13
I70
tp5237
a(I13
I71
tp5238
a(I13
I72
tp5239
a(I13
I73
tp5240
a(I13
I74
tp5241
a(I13
I75
tp5242
a(I13
I76
tp5243
a(I13
I77
tp5244
a(I13
I78
tp5245
a(I13
I79
tp5246
a(I14
I68
tp5247
a(I14
I69
tp5248
a(I14
I70
tp5249
a(I14
I71
tp5250
a(I14
I72
tp5251
a(I14
I73
tp5252
a(I14
I74
tp5253
a(I14
I75
tp5254
a(I14
I76
tp5255
a(I14
I77
tp5256
a(I14
I78
tp5257
a(I14
I79
tp5258
a(I15
I68
tp5259
a(I15
I69
tp5260
a(I15
I70
tp5261
a(I15
I71
tp5262
a(I15
I72
tp5263
a(I15
I73
tp5264
a(I15
I74
tp5265
a(I15
I75
tp5266
a(I15
I76
tp5267
a(I15
I77
tp5268
a(I15
I78
tp5269
a(I15
I79
tp5270
a(I16
I68
tp5271
a(I16
I69
tp5272
a(I16
I70
tp5273
a(I16
I71
tp5274
a(I16
I72
tp5275
a(I16
I73
tp5276
a(I16
I74
tp5277
a(I16
I75
tp5278
a(I16
I76
tp5279
a(I16
I77
tp5280
a(I16
I78
tp5281
a(I16
I79
tp5282
a(I17
I68
tp5283
a(I17
I69
tp5284
a(I17
I70
tp5285
a(I17
I71
tp5286
a(I17
I72
tp5287
a(I17
I73
tp5288
a(I17
I74
tp5289
a(I17
I75
tp5290
a(I17
I76
tp5291
a(I17
I77
tp5292
a(I17
I78
tp5293
a(I17
I79
tp5294
a(I18
I68
tp5295
a(I18
I69
tp5296
a(I18
I70
tp5297
a(I18
I71
tp5298
a(I18
I72
tp5299
a(I18
I73
tp5300
a(I18
I74
tp5301
a(I18
I75
tp5302
a(I18
I76
tp5303
a(I18
I77
tp5304
a(I18
I78
tp5305
a(I18
I79
tp5306
a(I19
I68
tp5307
a(I19
I69
tp5308
a(I19
I70
tp5309
a(I19
I71
tp5310
a(I19
I72
tp5311
a(I19
I73
tp5312
a(I19
I74
tp5313
a(I19
I75
tp5314
a(I19
I76
tp5315
a(I19
I77
tp5316
a(I19
I78
tp5317
a(I19
I79
tp5318
a(I20
I68
tp5319
a(I20
I69
tp5320
a(I20
I70
tp5321
a(I20
I71
tp5322
a(I20
I72
tp5323
a(I20
I73
tp5324
a(I20
I74
tp5325
a(I20
I75
tp5326
a(I20
I76
tp5327
a(I20
I77
tp5328
a(I20
I78
tp5329
a(I20
I79
tp5330
a(I21
I68
tp5331
a(I21
I69
tp5332
a(I21
I70
tp5333
a(I21
I71
tp5334
a(I21
I72
tp5335
a(I21
I73
tp5336
a(I21
I74
tp5337
a(I21
I75
tp5338
a(I21
I76
tp5339
a(I21
I77
tp5340
a(I21
I78
tp5341
a(I21
I79
tp5342
a(I22
I68
tp5343
a(I22
I69
tp5344
a(I22
I70
tp5345
a(I22
I71
tp5346
a(I22
I72
tp5347
a(I22
I73
tp5348
a(I22
I74
tp5349
a(I22
I75
tp5350
a(I22
I76
tp5351
a(I22
I77
tp5352
a(I22
I78
tp5353
a(I22
I79
tp5354
a(I23
I68
tp5355
a(I23
I69
tp5356
a(I23
I70
tp5357
a(I23
I71
tp5358
a(I23
I72
tp5359
a(I23
I73
tp5360
a(I23
I74
tp5361
a(I23
I75
tp5362
a(I23
I76
tp5363
a(I23
I77
tp5364
a(I23
I78
tp5365
a(I23
I79
tp5366
a(I24
I68
tp5367
a(I24
I69
tp5368
a(I24
I70
tp5369
a(I24
I71
tp5370
a(I24
I72
tp5371
a(I24
I73
tp5372
a(I24
I74
tp5373
a(I24
I75
tp5374
a(I24
I76
tp5375
a(I24
I77
tp5376
a(I24
I78
tp5377
a(I24
I79
tp5378
a(I25
I68
tp5379
a(I25
I69
tp5380
a(I25
I70
tp5381
a(I25
I71
tp5382
a(I25
I72
tp5383
a(I25
I73
tp5384
a(I25
I74
tp5385
a(I25
I75
tp5386
a(I25
I76
tp5387
a(I25
I77
tp5388
a(I25
I78
tp5389
a(I25
I79
tp5390
a(I26
I68
tp5391
a(I26
I69
tp5392
a(I26
I70
tp5393
a(I26
I71
tp5394
a(I26
I72
tp5395
a(I26
I73
tp5396
a(I26
I74
tp5397
a(I26
I75
tp5398
a(I26
I76
tp5399
a(I26
I77
tp5400
a(I26
I78
tp5401
a(I26
I79
tp5402
a(I27
I68
tp5403
a(I27
I69
tp5404
a(I27
I70
tp5405
a(I27
I71
tp5406
a(I27
I72
tp5407
a(I27
I73
tp5408
a(I27
I74
tp5409
a(I27
I75
tp5410
a(I27
I76
tp5411
a(I27
I77
tp5412
a(I27
I78
tp5413
a(I27
I79
tp5414
a(I28
I68
tp5415
a(I28
I69
tp5416
a(I28
I70
tp5417
a(I28
I71
tp5418
a(I28
I72
tp5419
a(I28
I73
tp5420
a(I28
I74
tp5421
a(I28
I75
tp5422
a(I28
I76
tp5423
a(I28
I77
tp5424
a(I28
I78
tp5425
a(I28
I79
tp5426
a(I29
I68
tp5427
a(I29
I69
tp5428
a(I29
I70
tp5429
a(I29
I71
tp5430
a(I29
I72
tp5431
a(I29
I73
tp5432
a(I29
I74
tp5433
a(I29
I75
tp5434
a(I29
I76
tp5435
a(I29
I77
tp5436
a(I29
I78
tp5437
a(I29
I79
tp5438
a(I30
I68
tp5439
a(I30
I69
tp5440
a(I30
I70
tp5441
a(I30
I71
tp5442
a(I30
I72
tp5443
a(I30
I73
tp5444
a(I30
I74
tp5445
a(I30
I75
tp5446
a(I30
I76
tp5447
a(I30
I77
tp5448
a(I30
I78
tp5449
a(I30
I79
tp5450
a(I31
I68
tp5451
a(I31
I69
tp5452
a(I31
I70
tp5453
a(I31
I71
tp5454
a(I31
I72
tp5455
a(I31
I73
tp5456
a(I31
I74
tp5457
a(I31
I75
tp5458
a(I31
I76
tp5459
a(I31
I77
tp5460
a(I31
I78
tp5461
a(I31
I79
tp5462
a(I32
I68
tp5463
a(I32
I69
tp5464
a(I32
I70
tp5465
a(I32
I71
tp5466
a(I32
I72
tp5467
a(I32
I73
tp5468
a(I32
I74
tp5469
a(I32
I75
tp5470
a(I32
I76
tp5471
a(I32
I77
tp5472
a(I32
I78
tp5473
a(I32
I79
tp5474
a(I33
I68
tp5475
a(I33
I69
tp5476
a(I33
I70
tp5477
a(I33
I71
tp5478
a(I33
I72
tp5479
a(I33
I73
tp5480
a(I33
I74
tp5481
a(I33
I75
tp5482
a(I33
I76
tp5483
a(I33
I77
tp5484
a(I33
I78
tp5485
a(I33
I79
tp5486
a(I34
I68
tp5487
a(I34
I69
tp5488
a(I34
I70
tp5489
a(I34
I71
tp5490
a(I34
I72
tp5491
a(I34
I73
tp5492
a(I34
I74
tp5493
a(I34
I75
tp5494
a(I34
I76
tp5495
a(I34
I77
tp5496
a(I34
I78
tp5497
a(I34
I79
tp5498
a(I35
I68
tp5499
a(I35
I69
tp5500
a(I35
I70
tp5501
a(I35
I71
tp5502
a(I35
I72
tp5503
a(I35
I73
tp5504
a(I35
I74
tp5505
a(I35
I75
tp5506
a(I35
I76
tp5507
a(I35
I77
tp5508
a(I35
I78
tp5509
a(I35
I79
tp5510
a(I36
I68
tp5511
a(I36
I69
tp5512
a(I36
I70
tp5513
a(I36
I71
tp5514
a(I36
I72
tp5515
a(I36
I73
tp5516
a(I36
I74
tp5517
a(I36
I75
tp5518
a(I36
I76
tp5519
a(I36
I77
tp5520
a(I36
I78
tp5521
a(I36
I79
tp5522
a(I37
I68
tp5523
a(I37
I69
tp5524
a(I37
I70
tp5525
a(I37
I71
tp5526
a(I37
I72
tp5527
a(I37
I73
tp5528
a(I37
I74
tp5529
a(I37
I75
tp5530
a(I37
I76
tp5531
a(I37
I77
tp5532
a(I37
I78
tp5533
a(I37
I79
tp5534
a(I38
I68
tp5535
a(I38
I69
tp5536
a(I38
I70
tp5537
a(I38
I71
tp5538
a(I38
I72
tp5539
a(I38
I73
tp5540
a(I38
I74
tp5541
a(I38
I75
tp5542
a(I38
I76
tp5543
a(I38
I77
tp5544
a(I38
I78
tp5545
a(I38
I79
tp5546
a(I39
I68
tp5547
a(I39
I69
tp5548
a(I39
I70
tp5549
a(I39
I71
tp5550
a(I39
I72
tp5551
a(I39
I73
tp5552
a(I39
I74
tp5553
a(I39
I75
tp5554
a(I39
I76
tp5555
a(I39
I77
tp5556
a(I39
I78
tp5557
a(I39
I79
tp5558
a(I40
I68
tp5559
a(I40
I69
tp5560
a(I40
I70
tp5561
a(I40
I71
tp5562
a(I40
I72
tp5563
a(I40
I73
tp5564
a(I40
I74
tp5565
a(I40
I75
tp5566
a(I40
I76
tp5567
a(I40
I77
tp5568
a(I40
I78
tp5569
a(I40
I79
tp5570
a(I41
I68
tp5571
a(I41
I69
tp5572
a(I41
I70
tp5573
a(I41
I71
tp5574
a(I41
I72
tp5575
a(I41
I73
tp5576
a(I41
I74
tp5577
a(I41
I75
tp5578
a(I41
I76
tp5579
a(I41
I77
tp5580
a(I41
I78
tp5581
a(I41
I79
tp5582
a(I42
I68
tp5583
a(I42
I69
tp5584
a(I42
I70
tp5585
a(I42
I71
tp5586
a(I42
I72
tp5587
a(I42
I73
tp5588
a(I42
I74
tp5589
a(I42
I75
tp5590
a(I42
I76
tp5591
a(I42
I77
tp5592
a(I42
I78
tp5593
a(I42
I79
tp5594
a(I43
I68
tp5595
a(I43
I69
tp5596
a(I43
I70
tp5597
a(I43
I71
tp5598
a(I43
I72
tp5599
a(I43
I73
tp5600
a(I43
I74
tp5601
a(I43
I75
tp5602
a(I43
I76
tp5603
a(I43
I77
tp5604
a(I43
I78
tp5605
a(I43
I79
tp5606
a(I44
I68
tp5607
a(I44
I69
tp5608
a(I44
I70
tp5609
a(I44
I71
tp5610
a(I44
I72
tp5611
a(I44
I73
tp5612
a(I44
I74
tp5613
a(I44
I75
tp5614
a(I44
I76
tp5615
a(I44
I77
tp5616
a(I44
I78
tp5617
a(I44
I79
tp5618
a(I45
I68
tp5619
a(I45
I69
tp5620
a(I45
I70
tp5621
a(I45
I71
tp5622
a(I45
I72
tp5623
a(I45
I73
tp5624
a(I45
I74
tp5625
a(I45
I75
tp5626
a(I45
I76
tp5627
a(I45
I77
tp5628
a(I45
I78
tp5629
a(I45
I79
tp5630
a(I46
I68
tp5631
a(I46
I69
tp5632
a(I46
I70
tp5633
a(I46
I71
tp5634
a(I46
I72
tp5635
a(I46
I73
tp5636
a(I46
I74
tp5637
a(I46
I75
tp5638
a(I46
I76
tp5639
a(I46
I77
tp5640
a(I46
I78
tp5641
a(I46
I79
tp5642
a(I47
I68
tp5643
a(I47
I69
tp5644
a(I47
I70
tp5645
a(I47
I71
tp5646
a(I47
I72
tp5647
a(I47
I73
tp5648
a(I47
I74
tp5649
a(I47
I75
tp5650
a(I47
I76
tp5651
a(I47
I77
tp5652
a(I47
I78
tp5653
a(I47
I79
tp5654
a(I48
I68
tp5655
a(I48
I69
tp5656
a(I48
I70
tp5657
a(I48
I71
tp5658
a(I48
I72
tp5659
a(I48
I73
tp5660
a(I48
I74
tp5661
a(I48
I75
tp5662
a(I48
I76
tp5663
a(I48
I77
tp5664
a(I48
I78
tp5665
a(I48
I79
tp5666
a(I49
I68
tp5667
a(I49
I69
tp5668
a(I49
I70
tp5669
a(I49
I71
tp5670
a(I49
I72
tp5671
a(I49
I73
tp5672
a(I49
I74
tp5673
a(I49
I75
tp5674
a(I49
I76
tp5675
a(I49
I77
tp5676
a(I49
I78
tp5677
a(I49
I79
tp5678
a(I50
I68
tp5679
a(I50
I69
tp5680
a(I50
I70
tp5681
a(I50
I71
tp5682
a(I50
I72
tp5683
a(I50
I73
tp5684
a(I50
I74
tp5685
a(I50
I75
tp5686
a(I50
I76
tp5687
a(I50
I77
tp5688
a(I50
I78
tp5689
a(I50
I79
tp5690
a(I78
I-21
tp5691
a(I79
I-21
tp5692
a(I78
I-20
tp5693
a(I79
I-20
tp5694
a(I78
I-19
tp5695
a(I79
I-19
tp5696
a(I78
I-18
tp5697
a(I79
I-18
tp5698
a(I78
I-17
tp5699
a(I79
I-17
tp5700
a(I78
I-16
tp5701
a(I79
I-16
tp5702
a(I78
I-17
tp5703
a(I78
I-16
tp5704
a(I79
I-17
tp5705
a(I79
I-16
tp5706
a(I80
I-17
tp5707
a(I80
I-16
tp5708
a(I81
I-17
tp5709
a(I81
I-16
tp5710
a(I82
I-17
tp5711
a(I82
I-16
tp5712
a(I83
I-17
tp5713
a(I83
I-16
tp5714
a(I84
I-17
tp5715
a(I84
I-16
tp5716
a(I85
I-17
tp5717
a(I85
I-16
tp5718
a(I86
I-17
tp5719
a(I86
I-16
tp5720
a(I87
I-17
tp5721
a(I87
I-16
tp5722
a(I85
I-11
tp5723
a(I85
I-10
tp5724
a(I85
I-9
tp5725
a(I85
I-8
tp5726
a(I85
I-7
tp5727
a(I85
I-6
tp5728
a(I85
I-5
tp5729
a(I85
I-4
tp5730
a(I85
I-3
tp5731
a(I85
I-2
tp5732
a(I85
I-1
tp5733
a(I85
I0
tp5734
a(I79
I5
tp5735
a(I79
I6
tp5736
a(I79
I7
tp5737
a(I80
I5
tp5738
a(I80
I6
tp5739
a(I80
I7
tp5740
a(I81
I5
tp5741
a(I81
I6
tp5742
a(I81
I7
tp5743
a(I82
I5
tp5744
a(I82
I6
tp5745
a(I82
I7
tp5746
a(I83
I5
tp5747
a(I83
I6
tp5748
a(I83
I7
tp5749
a(I84
I5
tp5750
a(I84
I6
tp5751
a(I84
I7
tp5752
a(I85
I5
tp5753
a(I85
I6
tp5754
a(I85
I7
tp5755
a(I86
I5
tp5756
a(I86
I6
tp5757
a(I86
I7
tp5758
a(I87
I5
tp5759
a(I87
I6
tp5760
a(I87
I7
tp5761
a(I79
I6
tp5762
a(I79
I7
tp5763
a(I79
I8
tp5764
a(I79
I9
tp5765
a(I79
I10
tp5766
a(I79
I11
tp5767
a(I79
I12
tp5768
a(I79
I13
tp5769
a(I79
I12
tp5770
a(I79
I13
tp5771
a(I80
I12
tp5772
a(I80
I13
tp5773
a(I80
I12
tp5774
a(I80
I13
tp5775
a(I80
I14
tp5776
a(I80
I15
tp5777
a(I80
I16
tp5778
a(I80
I17
tp5779
a(I80
I18
tp5780
a(I80
I19
tp5781
a(I80
I20
tp5782
a(I80
I21
tp5783
a(I80
I22
tp5784
a(I80
I23
tp5785
a(I80
I24
tp5786
a(I80
I25
tp5787
a(I80
I26
tp5788
a(I80
I27
tp5789
a(I80
I28
tp5790
a(I80
I29
tp5791
a(I80
I30
tp5792
a(I80
I31
tp5793
a(I80
I32
tp5794
a(I80
I33
tp5795
a(I80
I34
tp5796
a(I80
I35
tp5797
a(I80
I36
tp5798
a(I80
I37
tp5799
a(I-84
I40
tp5800
a(I-84
I41
tp5801
a(I-83
I40
tp5802
a(I-83
I41
tp5803
a(I-82
I40
tp5804
a(I-82
I41
tp5805
a(I-81
I40
tp5806
a(I-81
I41
tp5807
a(I-80
I40
tp5808
a(I-80
I41
tp5809
a(I-79
I40
tp5810
a(I-79
I41
tp5811
a(I-78
I40
tp5812
a(I-78
I41
tp5813
a(I-77
I40
tp5814
a(I-77
I41
tp5815
a(I-76
I40
tp5816
a(I-76
I41
tp5817
a(I-75
I40
tp5818
a(I-75
I41
tp5819
a(I-74
I40
tp5820
a(I-74
I41
tp5821
a(I-73
I40
tp5822
a(I-73
I41
tp5823
a(I-72
I40
tp5824
a(I-72
I41
tp5825
a(I-71
I40
tp5826
a(I-71
I41
tp5827
a(I-70
I40
tp5828
a(I-70
I41
tp5829
a(I77
I36
tp5830
a(I77
I37
tp5831
a(I78
I36
tp5832
a(I78
I37
tp5833
a(I79
I36
tp5834
a(I79
I37
tp5835
a(I80
I36
tp5836
a(I80
I37
tp5837
a(I-84
I68
tp5838
a(I-84
I69
tp5839
a(I-83
I68
tp5840
a(I-83
I69
tp5841
a(I-82
I68
tp5842
a(I-82
I69
tp5843
a(I-81
I68
tp5844
a(I-81
I69
tp5845
a(I-80
I68
tp5846
a(I-80
I69
tp5847
a(I-79
I68
tp5848
a(I-79
I69
tp5849
a(I-78
I68
tp5850
a(I-78
I69
tp5851
a(I-77
I68
tp5852
a(I-77
I69
tp5853
a(I-76
I68
tp5854
a(I-76
I69
tp5855
a(I-75
I68
tp5856
a(I-75
I69
tp5857
a(I-74
I68
tp5858
a(I-74
I69
tp5859
a(I-73
I68
tp5860
a(I-73
I69
tp5861
a(I-72
I68
tp5862
a(I-72
I69
tp5863
a(I-71
I68
tp5864
a(I-71
I69
tp5865
a(I-70
I68
tp5866
a(I-70
I69
tp5867
a(I-69
I68
tp5868
a(I-69
I69
tp5869
a(I-68
I68
tp5870
a(I-68
I69
tp5871
a(I-67
I68
tp5872
a(I-67
I69
tp5873
a(I-66
I68
tp5874
a(I-66
I69
tp5875
a(I-65
I68
tp5876
a(I-65
I69
tp5877
a(I-64
I68
tp5878
a(I-64
I69
tp5879
a(I-63
I68
tp5880
a(I-63
I69
tp5881
a(I-62
I68
tp5882
a(I-62
I69
tp5883
a(I-61
I68
tp5884
a(I-61
I69
tp5885
a(I-60
I68
tp5886
a(I-60
I69
tp5887
a(I-59
I68
tp5888
a(I-59
I69
tp5889
a(I-58
I68
tp5890
a(I-58
I69
tp5891
a(I-57
I68
tp5892
a(I-57
I69
tp5893
a(I-56
I68
tp5894
a(I-56
I69
tp5895
a(I-55
I68
tp5896
a(I-55
I69
tp5897
a(I-54
I68
tp5898
a(I-54
I69
tp5899
a(I-67
I57
tp5900
a(I-67
I58
tp5901
a(I-67
I59
tp5902
a(I-67
I60
tp5903
a(I-67
I61
tp5904
a(I-67
I62
tp5905
a(I-67
I63
tp5906
a(I-67
I64
tp5907
a(I-67
I65
tp5908
a(I-67
I66
tp5909
a(I-67
I67
tp5910
a(I-67
I57
tp5911
a(I-67
I58
tp5912
a(I-66
I57
tp5913
a(I-66
I58
tp5914
a(I-65
I57
tp5915
a(I-65
I58
tp5916
a(I-54
I59
tp5917
a(I-53
I59
tp5918
a(I-54
I60
tp5919
a(I-53
I60
tp5920
a(I-54
I61
tp5921
a(I-53
I61
tp5922
a(I-54
I62
tp5923
a(I-53
I62
tp5924
a(I-54
I63
tp5925
a(I-53
I63
tp5926
a(I-54
I64
tp5927
a(I-53
I64
tp5928
a(I-54
I65
tp5929
a(I-53
I65
tp5930
a(I-54
I66
tp5931
a(I-53
I66
tp5932
a(I-54
I67
tp5933
a(I-53
I67
tp5934
a(I-54
I68
tp5935
a(I-53
I68
tp5936
a(I-54
I69
tp5937
a(I-53
I69
tp5938
a(I-57
I58
tp5939
a(I-57
I59
tp5940
a(I-57
I60
tp5941
a(I-56
I58
tp5942
a(I-56
I59
tp5943
a(I-56
I60
tp5944
a(I-55
I58
tp5945
a(I-55
I59
tp5946
a(I-55
I60
tp5947
a(I-54
I58
tp5948
a(I-54
I59
tp5949
a(I-54
I60
tp5950
a(I-70
I40
tp5951
a(I-70
I41
tp5952
a(I-69
I40
tp5953
a(I-69
I41
tp5954
a(I-68
I40
tp5955
a(I-68
I41
tp5956
a(I-67
I40
tp5957
a(I-67
I41
tp5958
a(I-57
I57
tp5959
a(I-57
I58
tp5960
a(I-57
I59
tp5961
a(I-42
I58
tp5962
a(I-42
I59
tp5963
a(I-42
I60
tp5964
a(I-42
I61
tp5965
a(I-42
I62
tp5966
a(I-42
I63
tp5967
a(I-42
I64
tp5968
a(I-42
I65
tp5969
a(I-42
I66
tp5970
a(I-42
I67
tp5971
a(I-42
I68
tp5972
a(I-42
I69
tp5973
a(I-27
I66
tp5974
a(I-27
I67
tp5975
a(I-27
I68
tp5976
a(I-27
I69
tp5977
a(I-29
I65
tp5978
a(I-29
I66
tp5979
a(I-29
I67
tp5980
a(I-28
I65
tp5981
a(I-28
I66
tp5982
a(I-28
I67
tp5983
a(I-29
I57
tp5984
a(I-29
I58
tp5985
a(I-29
I59
tp5986
a(I-29
I60
tp5987
a(I-29
I61
tp5988
a(I-29
I62
tp5989
a(I-29
I63
tp5990
a(I-29
I64
tp5991
a(I-29
I65
tp5992
a(I-29
I66
tp5993
a(I-67
I41
tp5994
a(I-67
I42
tp5995
a(I-67
I43
tp5996
a(I-67
I44
tp5997
a(I-67
I45
tp5998
a(I-67
I46
tp5999
a(I-67
I47
tp6000
a(I-67
I48
tp6001
a(I-67
I49
tp6002
a(I-67
I50
tp6003
a(I-67
I51
tp6004
a(I-67
I52
tp6005
a(I-67
I53
tp6006
a(I-22
I57
tp6007
a(I-22
I58
tp6008
a(I-22
I59
tp6009
a(I-22
I60
tp6010
a(I-22
I61
tp6011
a(I-22
I62
tp6012
a(I-22
I63
tp6013
a(I-22
I64
tp6014
a(I-22
I65
tp6015
a(I-22
I66
tp6016
a(I-22
I67
tp6017
a(I-22
I68
tp6018
a(I-8
I58
tp6019
a(I-8
I59
tp6020
a(I-8
I60
tp6021
a(I-8
I61
tp6022
a(I-8
I62
tp6023
a(I-8
I63
tp6024
a(I-8
I64
tp6025
a(I-8
I65
tp6026
a(I-8
I66
tp6027
a(I-8
I67
tp6028
a(I-8
I68
tp6029
a(I-49
I52
tp6030
a(I-49
I53
tp6031
a(I-49
I54
tp6032
a(I-48
I52
tp6033
a(I-48
I53
tp6034
a(I-48
I54
tp6035
a(I-47
I52
tp6036
a(I-47
I53
tp6037
a(I-47
I54
tp6038
a(I-46
I52
tp6039
a(I-46
I53
tp6040
a(I-46
I54
tp6041
a(I-45
I52
tp6042
a(I-45
I53
tp6043
a(I-45
I54
tp6044
a(I-44
I52
tp6045
a(I-44
I53
tp6046
a(I-44
I54
tp6047
a(I-43
I52
tp6048
a(I-43
I53
tp6049
a(I-43
I54
tp6050
a(I-42
I52
tp6051
a(I-42
I53
tp6052
a(I-42
I54
tp6053
a(I-41
I52
tp6054
a(I-41
I53
tp6055
a(I-41
I54
tp6056
a(I-40
I52
tp6057
a(I-40
I53
tp6058
a(I-40
I54
tp6059
a(I-39
I52
tp6060
a(I-39
I53
tp6061
a(I-39
I54
tp6062
a(I-38
I52
tp6063
a(I-38
I53
tp6064
a(I-38
I54
tp6065
a(I-37
I52
tp6066
a(I-37
I53
tp6067
a(I-37
I54
tp6068
a(I-36
I52
tp6069
a(I-36
I53
tp6070
a(I-36
I54
tp6071
a(I-35
I52
tp6072
a(I-35
I53
tp6073
a(I-35
I54
tp6074
a(I-34
I52
tp6075
a(I-34
I53
tp6076
a(I-34
I54
tp6077
a(I-33
I52
tp6078
a(I-33
I53
tp6079
a(I-33
I54
tp6080
a(I-32
I52
tp6081
a(I-32
I53
tp6082
a(I-32
I54
tp6083
a(I-31
I52
tp6084
a(I-31
I53
tp6085
a(I-31
I54
tp6086
a(I-30
I52
tp6087
a(I-30
I53
tp6088
a(I-30
I54
tp6089
a(I-29
I52
tp6090
a(I-29
I53
tp6091
a(I-29
I54
tp6092
a(I-28
I52
tp6093
a(I-28
I53
tp6094
a(I-28
I54
tp6095
a(I-27
I52
tp6096
a(I-27
I53
tp6097
a(I-27
I54
tp6098
a(I-26
I52
tp6099
a(I-26
I53
tp6100
a(I-26
I54
tp6101
a(I-25
I52
tp6102
a(I-25
I53
tp6103
a(I-25
I54
tp6104
a(I-24
I52
tp6105
a(I-24
I53
tp6106
a(I-24
I54
tp6107
a(I-23
I52
tp6108
a(I-23
I53
tp6109
a(I-23
I54
tp6110
a(I-22
I52
tp6111
a(I-22
I53
tp6112
a(I-22
I54
tp6113
a(I-21
I52
tp6114
a(I-21
I53
tp6115
a(I-21
I54
tp6116
a(I-20
I52
tp6117
a(I-20
I53
tp6118
a(I-20
I54
tp6119
a(I-19
I52
tp6120
a(I-19
I53
tp6121
a(I-19
I54
tp6122
a(I-18
I52
tp6123
a(I-18
I53
tp6124
a(I-18
I54
tp6125
a(I-17
I52
tp6126
a(I-17
I53
tp6127
a(I-17
I54
tp6128
a(I-16
I52
tp6129
a(I-16
I53
tp6130
a(I-16
I54
tp6131
a(I-15
I52
tp6132
a(I-15
I53
tp6133
a(I-15
I54
tp6134
a(I-68
I52
tp6135
a(I-68
I53
tp6136
a(I-67
I52
tp6137
a(I-67
I53
tp6138
a(I-66
I52
tp6139
a(I-66
I53
tp6140
a(I-65
I52
tp6141
a(I-65
I53
tp6142
a(I-64
I52
tp6143
a(I-64
I53
tp6144
a(I-63
I52
tp6145
a(I-63
I53
tp6146
a(I-62
I52
tp6147
a(I-62
I53
tp6148
a(I-61
I52
tp6149
a(I-61
I53
tp6150
a(I-60
I52
tp6151
a(I-60
I53
tp6152
a(I-59
I52
tp6153
a(I-59
I53
tp6154
a(I-58
I52
tp6155
a(I-58
I53
tp6156
a(I-57
I52
tp6157
a(I-57
I53
tp6158
a(I-56
I52
tp6159
a(I-56
I53
tp6160
a(I-55
I52
tp6161
a(I-55
I53
tp6162
a(I-12
I53
tp6163
a(I-12
I54
tp6164
a(I-11
I53
tp6165
a(I-11
I54
tp6166
a(I-10
I53
tp6167
a(I-10
I54
tp6168
a(I-9
I53
tp6169
a(I-9
I54
tp6170
a(I-8
I53
tp6171
a(I-8
I54
tp6172
a(I-7
I53
tp6173
a(I-7
I54
tp6174
a(I-6
I53
tp6175
a(I-6
I54
tp6176
a(I-6
I41
tp6177
a(I-6
I42
tp6178
a(I-6
I43
tp6179
a(I-6
I44
tp6180
a(I-6
I45
tp6181
a(I-6
I46
tp6182
a(I-6
I47
tp6183
a(I-6
I48
tp6184
a(I-6
I49
tp6185
a(I-6
I50
tp6186
a(I-6
I51
tp6187
a(I-6
I52
tp6188
a(I-6
I53
tp6189
a(I-6
I53
tp6190
a(I-6
I54
tp6191
a(I-5
I53
tp6192
a(I-5
I54
tp6193
a(I-4
I53
tp6194
a(I-4
I54
tp6195
a(I-3
I53
tp6196
a(I-3
I54
tp6197
a(I-2
I53
tp6198
a(I-2
I54
tp6199
a(I-1
I53
tp6200
a(I-1
I54
tp6201
a(I0
I53
tp6202
a(I0
I54
tp6203
a(I1
I53
tp6204
a(I1
I54
tp6205
a(I2
I53
tp6206
a(I2
I54
tp6207
a(I6
I53
tp6208
a(I6
I54
tp6209
a(I7
I53
tp6210
a(I7
I54
tp6211
a(I7
I41
tp6212
a(I7
I42
tp6213
a(I7
I43
tp6214
a(I7
I44
tp6215
a(I7
I45
tp6216
a(I7
I46
tp6217
a(I7
I47
tp6218
a(I7
I48
tp6219
a(I7
I49
tp6220
a(I7
I50
tp6221
a(I7
I51
tp6222
a(I7
I52
tp6223
a(I7
I53
tp6224
a(I49
I67
tp6225
a(I49
I68
tp6226
a(I50
I67
tp6227
a(I50
I68
tp6228
a(I51
I67
tp6229
a(I51
I68
tp6230
a(I52
I67
tp6231
a(I52
I68
tp6232
a(I53
I67
tp6233
a(I53
I68
tp6234
a(I54
I67
tp6235
a(I54
I68
tp6236
a(I55
I67
tp6237
a(I55
I68
tp6238
a(I56
I67
tp6239
a(I56
I68
tp6240
a(I57
I67
tp6241
a(I57
I68
tp6242
a(I58
I67
tp6243
a(I58
I68
tp6244
a(I59
I67
tp6245
a(I59
I68
tp6246
a(I60
I67
tp6247
a(I60
I68
tp6248
a(I61
I67
tp6249
a(I61
I68
tp6250
a(I62
I67
tp6251
a(I62
I68
tp6252
a(I63
I67
tp6253
a(I63
I68
tp6254
a(I64
I67
tp6255
a(I64
I68
tp6256
a(I65
I67
tp6257
a(I65
I68
tp6258
a(I66
I67
tp6259
a(I66
I68
tp6260
a(I67
I67
tp6261
a(I67
I68
tp6262
a(I68
I67
tp6263
a(I68
I68
tp6264
a(I69
I67
tp6265
a(I69
I68
tp6266
a(I70
I67
tp6267
a(I70
I68
tp6268
a(I71
I67
tp6269
a(I71
I68
tp6270
a(I72
I67
tp6271
a(I72
I68
tp6272
a(I73
I67
tp6273
a(I73
I68
tp6274
a(I74
I67
tp6275
a(I74
I68
tp6276
a(I75
I67
tp6277
a(I75
I68
tp6278
a(I76
I67
tp6279
a(I76
I68
tp6280
a(I77
I67
tp6281
a(I77
I68
tp6282
a(I78
I67
tp6283
a(I78
I68
tp6284
a(I79
I67
tp6285
a(I79
I68
tp6286
a(I80
I67
tp6287
a(I80
I68
tp6288
a(I81
I67
tp6289
a(I81
I68
tp6290
a(I82
I67
tp6291
a(I82
I68
tp6292
a(I83
I67
tp6293
a(I83
I68
tp6294
a(I84
I67
tp6295
a(I84
I68
tp6296
a(I85
I67
tp6297
a(I85
I68
tp6298
a(I86
I67
tp6299
a(I86
I68
tp6300
a(I87
I67
tp6301
a(I87
I68
tp6302
a(I88
I67
tp6303
a(I88
I68
tp6304
a(I89
I67
tp6305
a(I89
I68
tp6306
a(I89
I41
tp6307
a(I89
I42
tp6308
a(I89
I43
tp6309
a(I89
I44
tp6310
a(I89
I45
tp6311
a(I89
I46
tp6312
a(I89
I47
tp6313
a(I89
I48
tp6314
a(I89
I49
tp6315
a(I89
I50
tp6316
a(I89
I51
tp6317
a(I89
I52
tp6318
a(I89
I53
tp6319
a(I89
I54
tp6320
a(I89
I55
tp6321
a(I89
I56
tp6322
a(I89
I57
tp6323
a(I89
I58
tp6324
a(I89
I59
tp6325
a(I89
I60
tp6326
a(I89
I61
tp6327
a(I89
I62
tp6328
a(I89
I63
tp6329
a(I89
I64
tp6330
a(I89
I65
tp6331
a(I89
I66
tp6332
a(I89
I67
tp6333
a(I89
I68
tp6334
a(I-55
I46
tp6335
a(I-54
I46
tp6336
a(I-55
I47
tp6337
a(I-54
I47
tp6338
a(I-55
I48
tp6339
a(I-54
I48
tp6340
a(I-55
I49
tp6341
a(I-54
I49
tp6342
a(I-55
I50
tp6343
a(I-54
I50
tp6344
a(I-55
I51
tp6345
a(I-54
I51
tp6346
a(I-55
I52
tp6347
a(I-54
I52
tp6348
a(I-55
I53
tp6349
a(I-54
I53
tp6350
a(I77
I40
tp6351
a(I77
I41
tp6352
a(I77
I42
tp6353
a(I78
I40
tp6354
a(I78
I41
tp6355
a(I78
I42
tp6356
a(I79
I40
tp6357
a(I79
I41
tp6358
a(I79
I42
tp6359
a(I80
I40
tp6360
a(I80
I41
tp6361
a(I80
I42
tp6362
a(I81
I40
tp6363
a(I81
I41
tp6364
a(I81
I42
tp6365
a(I82
I40
tp6366
a(I82
I41
tp6367
a(I82
I42
tp6368
a(I83
I40
tp6369
a(I83
I41
tp6370
a(I83
I42
tp6371
a(I84
I40
tp6372
a(I84
I41
tp6373
a(I84
I42
tp6374
a(I85
I40
tp6375
a(I85
I41
tp6376
a(I85
I42
tp6377
a(I86
I40
tp6378
a(I86
I41
tp6379
a(I86
I42
tp6380
a(I87
I40
tp6381
a(I87
I41
tp6382
a(I87
I42
tp6383
a(I88
I40
tp6384
a(I88
I41
tp6385
a(I88
I42
tp6386
a(I77
I40
tp6387
a(I77
I41
tp6388
a(I77
I42
tp6389
a(I72
I41
tp6390
a(I72
I42
tp6391
a(I73
I41
tp6392
a(I73
I42
tp6393
a(I74
I41
tp6394
a(I74
I42
tp6395
a(I75
I41
tp6396
a(I75
I42
tp6397
a(I76
I41
tp6398
a(I76
I42
tp6399
a(I77
I41
tp6400
a(I77
I42
tp6401
a(I48
I41
tp6402
a(I49
I41
tp6403
a(I48
I42
tp6404
a(I49
I42
tp6405
a(I48
I43
tp6406
a(I49
I43
tp6407
a(I48
I44
tp6408
a(I49
I44
tp6409
a(I48
I45
tp6410
a(I49
I45
tp6411
a(I48
I46
tp6412
a(I49
I46
tp6413
a(I48
I47
tp6414
a(I49
I47
tp6415
a(I48
I48
tp6416
a(I49
I48
tp6417
a(I48
I49
tp6418
a(I49
I49
tp6419
a(I48
I50
tp6420
a(I49
I50
tp6421
a(I48
I51
tp6422
a(I49
I51
tp6423
a(I48
I52
tp6424
a(I49
I52
tp6425
a(I48
I53
tp6426
a(I49
I53
tp6427
a(I48
I54
tp6428
a(I49
I54
tp6429
a(I48
I55
tp6430
a(I49
I55
tp6431
a(I48
I56
tp6432
a(I49
I56
tp6433
a(I48
I57
tp6434
a(I49
I57
tp6435
a(I48
I58
tp6436
a(I49
I58
tp6437
a(I48
I59
tp6438
a(I49
I59
tp6439
a(I48
I60
tp6440
a(I49
I60
tp6441
a(I48
I61
tp6442
a(I49
I61
tp6443
a(I48
I62
tp6444
a(I49
I62
tp6445
a(I48
I63
tp6446
a(I49
I63
tp6447
a(I48
I64
tp6448
a(I49
I64
tp6449
a(I48
I65
tp6450
a(I49
I65
tp6451
a(I48
I66
tp6452
a(I49
I66
tp6453
a(I48
I67
tp6454
a(I49
I67
tp6455
a(I48
I68
tp6456
a(I49
I68
tp6457
a(I49
I41
tp6458
a(I49
I42
tp6459
a(I50
I41
tp6460
a(I50
I42
tp6461
a(I51
I41
tp6462
a(I51
I42
tp6463
a(I52
I41
tp6464
a(I52
I42
tp6465
a(I53
I41
tp6466
a(I53
I42
tp6467
a(I54
I41
tp6468
a(I54
I42
tp6469
a(I55
I41
tp6470
a(I55
I42
tp6471
a(I56
I41
tp6472
a(I56
I42
tp6473
a(I57
I41
tp6474
a(I57
I42
tp6475
a(I58
I41
tp6476
a(I58
I42
tp6477
a(I58
I41
tp6478
a(I58
I42
tp6479
a(I58
I43
tp6480
a(I58
I44
tp6481
a(I58
I45
tp6482
a(I58
I46
tp6483
a(I58
I45
tp6484
a(I58
I46
tp6485
a(I59
I45
tp6486
a(I59
I46
tp6487
a(I60
I45
tp6488
a(I60
I46
tp6489
a(I61
I45
tp6490
a(I61
I46
tp6491
a(I62
I45
tp6492
a(I62
I46
tp6493
a(I63
I45
tp6494
a(I63
I46
tp6495
a(I64
I45
tp6496
a(I64
I46
tp6497
a(I65
I45
tp6498
a(I65
I46
tp6499
a(I66
I45
tp6500
a(I66
I46
tp6501
a(I67
I45
tp6502
a(I67
I46
tp6503
a(I67
I41
tp6504
a(I68
I41
tp6505
a(I67
I42
tp6506
a(I68
I42
tp6507
a(I67
I43
tp6508
a(I68
I43
tp6509
a(I67
I44
tp6510
a(I68
I44
tp6511
a(I67
I45
tp6512
a(I68
I45
tp6513
a(I67
I46
tp6514
a(I68
I46
tp6515
a(I-64
I45
tp6516
a(I-64
I46
tp6517
a(I-64
I47
tp6518
a(I-63
I45
tp6519
a(I-63
I46
tp6520
a(I-63
I47
tp6521
a(I-62
I45
tp6522
a(I-62
I46
tp6523
a(I-62
I47
tp6524
a(I-61
I45
tp6525
a(I-61
I46
tp6526
a(I-61
I47
tp6527
a(I-60
I45
tp6528
a(I-60
I46
tp6529
a(I-60
I47
tp6530
a(I-59
I45
tp6531
a(I-59
I46
tp6532
a(I-59
I47
tp6533
a(I-58
I45
tp6534
a(I-58
I46
tp6535
a(I-58
I47
tp6536
a(I-57
I45
tp6537
a(I-57
I46
tp6538
a(I-57
I47
tp6539
a(I-56
I45
tp6540
a(I-56
I46
tp6541
a(I-56
I47
tp6542
a(I-55
I45
tp6543
a(I-55
I46
tp6544
a(I-55
I47
tp6545
a(I-76
I10
tp6546
a(I-76
I11
tp6547
a(I-76
I12
tp6548
a(I-76
I13
tp6549
a(I-76
I14
tp6550
a(I-76
I15
tp6551
a(I-76
I16
tp6552
a(I-76
I17
tp6553
a(I-76
I18
tp6554
a(I-76
I19
tp6555
a(I-76
I20
tp6556
a(I-76
I21
tp6557
a(I-76
I22
tp6558
a(I-76
I23
tp6559
a(I-76
I24
tp6560
a(I-76
I25
tp6561
a(I-76
I26
tp6562
a(I-76
I27
tp6563
a(I-76
I28
tp6564
a(I-76
I29
tp6565
a(I-76
I30
tp6566
a(I-76
I31
tp6567
a(I-76
I32
tp6568
a(I-76
I33
tp6569
a(I-76
I34
tp6570
a(I-76
I35
tp6571
a(I-76
I36
tp6572
a(I-76
I37
tp6573
a(I-86
I10
tp6574
a(I-85
I10
tp6575
a(I-84
I10
tp6576
a(I-83
I10
tp6577
a(I-82
I10
tp6578
a(I-81
I10
tp6579
a(I-80
I10
tp6580
a(I-79
I10
tp6581
a(I-78
I10
tp6582
a(I-77
I10
tp6583
a(I-76
I10
tp6584
a(I-86
I11
tp6585
a(I-85
I11
tp6586
a(I-84
I11
tp6587
a(I-83
I11
tp6588
a(I-82
I11
tp6589
a(I-81
I11
tp6590
a(I-80
I11
tp6591
a(I-79
I11
tp6592
a(I-78
I11
tp6593
a(I-77
I11
tp6594
a(I-76
I11
tp6595
a(I-86
I12
tp6596
a(I-85
I12
tp6597
a(I-84
I12
tp6598
a(I-83
I12
tp6599
a(I-82
I12
tp6600
a(I-81
I12
tp6601
a(I-80
I12
tp6602
a(I-79
I12
tp6603
a(I-78
I12
tp6604
a(I-77
I12
tp6605
a(I-76
I12
tp6606
a(I-86
I13
tp6607
a(I-85
I13
tp6608
a(I-84
I13
tp6609
a(I-83
I13
tp6610
a(I-82
I13
tp6611
a(I-81
I13
tp6612
a(I-80
I13
tp6613
a(I-79
I13
tp6614
a(I-78
I13
tp6615
a(I-77
I13
tp6616
a(I-76
I13
tp6617
a(I-86
I14
tp6618
a(I-85
I14
tp6619
a(I-84
I14
tp6620
a(I-83
I14
tp6621
a(I-82
I14
tp6622
a(I-81
I14
tp6623
a(I-80
I14
tp6624
a(I-79
I14
tp6625
a(I-78
I14
tp6626
a(I-77
I14
tp6627
a(I-76
I14
tp6628
a(I-86
I15
tp6629
a(I-85
I15
tp6630
a(I-84
I15
tp6631
a(I-83
I15
tp6632
a(I-82
I15
tp6633
a(I-81
I15
tp6634
a(I-80
I15
tp6635
a(I-79
I15
tp6636
a(I-78
I15
tp6637
a(I-77
I15
tp6638
a(I-76
I15
tp6639
a(I-86
I16
tp6640
a(I-85
I16
tp6641
a(I-84
I16
tp6642
a(I-83
I16
tp6643
a(I-82
I16
tp6644
a(I-81
I16
tp6645
a(I-80
I16
tp6646
a(I-79
I16
tp6647
a(I-78
I16
tp6648
a(I-77
I16
tp6649
a(I-76
I16
tp6650
a(I-86
I17
tp6651
a(I-85
I17
tp6652
a(I-84
I17
tp6653
a(I-83
I17
tp6654
a(I-82
I17
tp6655
a(I-81
I17
tp6656
a(I-80
I17
tp6657
a(I-79
I17
tp6658
a(I-78
I17
tp6659
a(I-77
I17
tp6660
a(I-76
I17
tp6661
a(I-86
I18
tp6662
a(I-85
I18
tp6663
a(I-84
I18
tp6664
a(I-83
I18
tp6665
a(I-82
I18
tp6666
a(I-81
I18
tp6667
a(I-80
I18
tp6668
a(I-79
I18
tp6669
a(I-78
I18
tp6670
a(I-77
I18
tp6671
a(I-76
I18
tp6672
a(I-86
I19
tp6673
a(I-85
I19
tp6674
a(I-84
I19
tp6675
a(I-83
I19
tp6676
a(I-82
I19
tp6677
a(I-81
I19
tp6678
a(I-80
I19
tp6679
a(I-79
I19
tp6680
a(I-78
I19
tp6681
a(I-77
I19
tp6682
a(I-76
I19
tp6683
a(I-86
I20
tp6684
a(I-85
I20
tp6685
a(I-84
I20
tp6686
a(I-83
I20
tp6687
a(I-82
I20
tp6688
a(I-81
I20
tp6689
a(I-80
I20
tp6690
a(I-79
I20
tp6691
a(I-78
I20
tp6692
a(I-77
I20
tp6693
a(I-76
I20
tp6694
a(I-86
I21
tp6695
a(I-85
I21
tp6696
a(I-84
I21
tp6697
a(I-83
I21
tp6698
a(I-82
I21
tp6699
a(I-81
I21
tp6700
a(I-80
I21
tp6701
a(I-79
I21
tp6702
a(I-78
I21
tp6703
a(I-77
I21
tp6704
a(I-76
I21
tp6705
a(I-86
I22
tp6706
a(I-85
I22
tp6707
a(I-84
I22
tp6708
a(I-83
I22
tp6709
a(I-82
I22
tp6710
a(I-81
I22
tp6711
a(I-80
I22
tp6712
a(I-79
I22
tp6713
a(I-78
I22
tp6714
a(I-77
I22
tp6715
a(I-76
I22
tp6716
a(I-86
I23
tp6717
a(I-85
I23
tp6718
a(I-84
I23
tp6719
a(I-83
I23
tp6720
a(I-82
I23
tp6721
a(I-81
I23
tp6722
a(I-80
I23
tp6723
a(I-79
I23
tp6724
a(I-78
I23
tp6725
a(I-77
I23
tp6726
a(I-76
I23
tp6727
a(I-86
I24
tp6728
a(I-85
I24
tp6729
a(I-84
I24
tp6730
a(I-83
I24
tp6731
a(I-82
I24
tp6732
a(I-81
I24
tp6733
a(I-80
I24
tp6734
a(I-79
I24
tp6735
a(I-78
I24
tp6736
a(I-77
I24
tp6737
a(I-76
I24
tp6738
a(I-86
I25
tp6739
a(I-85
I25
tp6740
a(I-84
I25
tp6741
a(I-83
I25
tp6742
a(I-82
I25
tp6743
a(I-81
I25
tp6744
a(I-80
I25
tp6745
a(I-79
I25
tp6746
a(I-78
I25
tp6747
a(I-77
I25
tp6748
a(I-76
I25
tp6749
a(I-86
I26
tp6750
a(I-85
I26
tp6751
a(I-84
I26
tp6752
a(I-83
I26
tp6753
a(I-82
I26
tp6754
a(I-81
I26
tp6755
a(I-80
I26
tp6756
a(I-79
I26
tp6757
a(I-78
I26
tp6758
a(I-77
I26
tp6759
a(I-76
I26
tp6760
a(I-86
I27
tp6761
a(I-85
I27
tp6762
a(I-84
I27
tp6763
a(I-83
I27
tp6764
a(I-82
I27
tp6765
a(I-81
I27
tp6766
a(I-80
I27
tp6767
a(I-79
I27
tp6768
a(I-78
I27
tp6769
a(I-77
I27
tp6770
a(I-76
I27
tp6771
a(I-86
I28
tp6772
a(I-85
I28
tp6773
a(I-84
I28
tp6774
a(I-83
I28
tp6775
a(I-82
I28
tp6776
a(I-81
I28
tp6777
a(I-80
I28
tp6778
a(I-79
I28
tp6779
a(I-78
I28
tp6780
a(I-77
I28
tp6781
a(I-76
I28
tp6782
a(I-86
I29
tp6783
a(I-85
I29
tp6784
a(I-84
I29
tp6785
a(I-83
I29
tp6786
a(I-82
I29
tp6787
a(I-81
I29
tp6788
a(I-80
I29
tp6789
a(I-79
I29
tp6790
a(I-78
I29
tp6791
a(I-77
I29
tp6792
a(I-76
I29
tp6793
a(I-86
I30
tp6794
a(I-85
I30
tp6795
a(I-84
I30
tp6796
a(I-83
I30
tp6797
a(I-82
I30
tp6798
a(I-81
I30
tp6799
a(I-80
I30
tp6800
a(I-79
I30
tp6801
a(I-78
I30
tp6802
a(I-77
I30
tp6803
a(I-76
I30
tp6804
a(I-86
I31
tp6805
a(I-85
I31
tp6806
a(I-84
I31
tp6807
a(I-83
I31
tp6808
a(I-82
I31
tp6809
a(I-81
I31
tp6810
a(I-80
I31
tp6811
a(I-79
I31
tp6812
a(I-78
I31
tp6813
a(I-77
I31
tp6814
a(I-76
I31
tp6815
a(I-86
I32
tp6816
a(I-85
I32
tp6817
a(I-84
I32
tp6818
a(I-83
I32
tp6819
a(I-82
I32
tp6820
a(I-81
I32
tp6821
a(I-80
I32
tp6822
a(I-79
I32
tp6823
a(I-78
I32
tp6824
a(I-77
I32
tp6825
a(I-76
I32
tp6826
a(I-86
I33
tp6827
a(I-85
I33
tp6828
a(I-84
I33
tp6829
a(I-83
I33
tp6830
a(I-82
I33
tp6831
a(I-81
I33
tp6832
a(I-80
I33
tp6833
a(I-79
I33
tp6834
a(I-78
I33
tp6835
a(I-77
I33
tp6836
a(I-76
I33
tp6837
a(I-86
I34
tp6838
a(I-85
I34
tp6839
a(I-84
I34
tp6840
a(I-83
I34
tp6841
a(I-82
I34
tp6842
a(I-81
I34
tp6843
a(I-80
I34
tp6844
a(I-79
I34
tp6845
a(I-78
I34
tp6846
a(I-77
I34
tp6847
a(I-76
I34
tp6848
a(I-86
I35
tp6849
a(I-85
I35
tp6850
a(I-84
I35
tp6851
a(I-83
I35
tp6852
a(I-82
I35
tp6853
a(I-81
I35
tp6854
a(I-80
I35
tp6855
a(I-79
I35
tp6856
a(I-78
I35
tp6857
a(I-77
I35
tp6858
a(I-76
I35
tp6859
a(I-86
I36
tp6860
a(I-85
I36
tp6861
a(I-84
I36
tp6862
a(I-83
I36
tp6863
a(I-82
I36
tp6864
a(I-81
I36
tp6865
a(I-80
I36
tp6866
a(I-79
I36
tp6867
a(I-78
I36
tp6868
a(I-77
I36
tp6869
a(I-76
I36
tp6870
a(I-86
I37
tp6871
a(I-85
I37
tp6872
a(I-84
I37
tp6873
a(I-83
I37
tp6874
a(I-82
I37
tp6875
a(I-81
I37
tp6876
a(I-80
I37
tp6877
a(I-79
I37
tp6878
a(I-78
I37
tp6879
a(I-77
I37
tp6880
a(I-76
I37
tp6881
a(I-76
I9
tp6882
a(I-76
I10
tp6883
a(I-76
I11
tp6884
a(I-75
I9
tp6885
a(I-75
I10
tp6886
a(I-75
I11
tp6887
a(I-74
I9
tp6888
a(I-74
I10
tp6889
a(I-74
I11
tp6890
a(I-73
I9
tp6891
a(I-73
I10
tp6892
a(I-73
I11
tp6893
a(I-72
I9
tp6894
a(I-72
I10
tp6895
a(I-72
I11
tp6896
a(I-71
I9
tp6897
a(I-71
I10
tp6898
a(I-71
I11
tp6899
a(I-70
I9
tp6900
a(I-70
I10
tp6901
a(I-70
I11
tp6902
a(I-69
I9
tp6903
a(I-69
I10
tp6904
a(I-69
I11
tp6905
a(I-68
I9
tp6906
a(I-68
I10
tp6907
a(I-68
I11
tp6908
a(I-67
I9
tp6909
a(I-67
I10
tp6910
a(I-67
I11
tp6911
a(I-66
I9
tp6912
a(I-66
I10
tp6913
a(I-66
I11
tp6914
a(I-65
I9
tp6915
a(I-65
I10
tp6916
a(I-65
I11
tp6917
a(I-64
I9
tp6918
a(I-64
I10
tp6919
a(I-64
I11
tp6920
a(I-63
I9
tp6921
a(I-63
I10
tp6922
a(I-63
I11
tp6923
a(I-62
I9
tp6924
a(I-62
I10
tp6925
a(I-62
I11
tp6926
a(I-61
I9
tp6927
a(I-61
I10
tp6928
a(I-61
I11
tp6929
a(I-60
I9
tp6930
a(I-60
I10
tp6931
a(I-60
I11
tp6932
a(I-59
I9
tp6933
a(I-59
I10
tp6934
a(I-59
I11
tp6935
a(I-58
I9
tp6936
a(I-58
I10
tp6937
a(I-58
I11
tp6938
a(I-57
I9
tp6939
a(I-57
I10
tp6940
a(I-57
I11
tp6941
a(I-56
I9
tp6942
a(I-56
I10
tp6943
a(I-56
I11
tp6944
a(I-55
I9
tp6945
a(I-55
I10
tp6946
a(I-55
I11
tp6947
a(I-54
I9
tp6948
a(I-54
I10
tp6949
a(I-54
I11
tp6950
a(I-53
I9
tp6951
a(I-53
I10
tp6952
a(I-53
I11
tp6953
a(I-52
I9
tp6954
a(I-52
I10
tp6955
a(I-52
I11
tp6956
a(I-51
I9
tp6957
a(I-51
I10
tp6958
a(I-51
I11
tp6959
a(I-50
I9
tp6960
a(I-50
I10
tp6961
a(I-50
I11
tp6962
a(I-49
I9
tp6963
a(I-49
I10
tp6964
a(I-49
I11
tp6965
a(I-48
I9
tp6966
a(I-48
I10
tp6967
a(I-48
I11
tp6968
a(I-47
I9
tp6969
a(I-47
I10
tp6970
a(I-47
I11
tp6971
a(I-46
I9
tp6972
a(I-46
I10
tp6973
a(I-46
I11
tp6974
a(I-45
I9
tp6975
a(I-45
I10
tp6976
a(I-45
I11
tp6977
a(I-44
I9
tp6978
a(I-44
I10
tp6979
a(I-44
I11
tp6980
a(I-44
I9
tp6981
a(I-44
I10
tp6982
a(I-44
I11
tp6983
a(I-44
I12
tp6984
a(I-44
I13
tp6985
a(I-44
I14
tp6986
a(I-44
I15
tp6987
a(I-44
I16
tp6988
a(I-44
I17
tp6989
a(I-44
I18
tp6990
a(I-44
I19
tp6991
a(I-44
I20
tp6992
a(I-58
I19
tp6993
a(I-58
I20
tp6994
a(I-57
I19
tp6995
a(I-57
I20
tp6996
a(I-56
I19
tp6997
a(I-56
I20
tp6998
a(I-55
I19
tp6999
a(I-55
I20
tp7000
a(I-54
I19
tp7001
a(I-54
I20
tp7002
a(I-53
I19
tp7003
a(I-53
I20
tp7004
a(I-52
I19
tp7005
a(I-52
I20
tp7006
a(I-51
I19
tp7007
a(I-51
I20
tp7008
a(I-50
I19
tp7009
a(I-50
I20
tp7010
a(I-49
I19
tp7011
a(I-49
I20
tp7012
a(I-48
I19
tp7013
a(I-48
I20
tp7014
a(I-47
I19
tp7015
a(I-47
I20
tp7016
a(I-46
I19
tp7017
a(I-46
I20
tp7018
a(I-45
I19
tp7019
a(I-45
I20
tp7020
a(I-64
I19
tp7021
a(I-64
I20
tp7022
a(I-63
I19
tp7023
a(I-63
I20
tp7024
a(I-62
I19
tp7025
a(I-62
I20
tp7026
a(I-61
I19
tp7027
a(I-61
I20
tp7028
a(I-64
I9
tp7029
a(I-64
I10
tp7030
a(I-64
I11
tp7031
a(I-64
I12
tp7032
a(I-64
I13
tp7033
a(I-64
I14
tp7034
a(I-64
I15
tp7035
a(I-64
I16
tp7036
a(I-64
I17
tp7037
a(I-64
I18
tp7038
a(I-64
I19
tp7039
a(I-64
I20
tp7040
a(I-64
I9
tp7041
a(I-64
I10
tp7042
a(I-64
I11
tp7043
a(I-63
I41
tp7044
a(I-63
I42
tp7045
a(I-63
I43
tp7046
a(I-63
I44
tp7047
a(I-63
I45
tp7048
a(I-63
I46
tp7049
a(I-76
I36
tp7050
a(I-76
I37
tp7051
a(I-75
I36
tp7052
a(I-75
I37
tp7053
a(I-74
I36
tp7054
a(I-74
I37
tp7055
a(I-73
I36
tp7056
a(I-73
I37
tp7057
a(I-72
I36
tp7058
a(I-72
I37
tp7059
a(I-71
I36
tp7060
a(I-71
I37
tp7061
a(I-70
I36
tp7062
a(I-70
I37
tp7063
a(I-69
I36
tp7064
a(I-69
I37
tp7065
a(I-68
I36
tp7066
a(I-68
I37
tp7067
a(I-67
I36
tp7068
a(I-67
I37
tp7069
a(I-66
I36
tp7070
a(I-66
I37
tp7071
a(I-65
I36
tp7072
a(I-65
I37
tp7073
a(I-64
I36
tp7074
a(I-64
I37
tp7075
a(I-63
I36
tp7076
a(I-63
I37
tp7077
a(I-62
I36
tp7078
a(I-62
I37
tp7079
a(I-61
I36
tp7080
a(I-61
I37
tp7081
a(I-60
I36
tp7082
a(I-60
I37
tp7083
a(I-59
I36
tp7084
a(I-59
I37
tp7085
a(I-58
I36
tp7086
a(I-58
I37
tp7087
a(I-57
I36
tp7088
a(I-57
I37
tp7089
a(I-56
I36
tp7090
a(I-56
I37
tp7091
a(I-55
I36
tp7092
a(I-55
I37
tp7093
a(I-54
I36
tp7094
a(I-54
I37
tp7095
a(I-53
I36
tp7096
a(I-53
I37
tp7097
a(I-52
I36
tp7098
a(I-52
I37
tp7099
a(I-51
I36
tp7100
a(I-51
I37
tp7101
a(I-50
I36
tp7102
a(I-50
I37
tp7103
a(I-49
I36
tp7104
a(I-49
I37
tp7105
a(I-48
I36
tp7106
a(I-48
I37
tp7107
a(I-47
I36
tp7108
a(I-47
I37
tp7109
a(I-46
I36
tp7110
a(I-46
I37
tp7111
a(I-45
I36
tp7112
a(I-45
I37
tp7113
a(I-45
I24
tp7114
a(I-45
I25
tp7115
a(I-45
I26
tp7116
a(I-45
I27
tp7117
a(I-45
I28
tp7118
a(I-45
I29
tp7119
a(I-45
I30
tp7120
a(I-45
I31
tp7121
a(I-45
I32
tp7122
a(I-45
I33
tp7123
a(I-45
I34
tp7124
a(I-45
I35
tp7125
a(I-45
I36
tp7126
a(I-45
I37
tp7127
a(I-54
I24
tp7128
a(I-54
I25
tp7129
a(I-53
I24
tp7130
a(I-53
I25
tp7131
a(I-52
I24
tp7132
a(I-52
I25
tp7133
a(I-51
I24
tp7134
a(I-51
I25
tp7135
a(I-50
I24
tp7136
a(I-50
I25
tp7137
a(I-49
I24
tp7138
a(I-49
I25
tp7139
a(I-48
I24
tp7140
a(I-48
I25
tp7141
a(I-47
I24
tp7142
a(I-47
I25
tp7143
a(I-46
I24
tp7144
a(I-46
I25
tp7145
a(I-45
I24
tp7146
a(I-45
I25
tp7147
a(I26
I41
tp7148
a(I27
I41
tp7149
a(I26
I42
tp7150
a(I27
I42
tp7151
a(I26
I43
tp7152
a(I27
I43
tp7153
a(I26
I44
tp7154
a(I27
I44
tp7155
a(I26
I45
tp7156
a(I27
I45
tp7157
a(I26
I46
tp7158
a(I27
I46
tp7159
a(I26
I47
tp7160
a(I27
I47
tp7161
a(I26
I48
tp7162
a(I27
I48
tp7163
a(I26
I49
tp7164
a(I27
I49
tp7165
a(I26
I50
tp7166
a(I27
I50
tp7167
a(I26
I51
tp7168
a(I27
I51
tp7169
a(I26
I52
tp7170
a(I27
I52
tp7171
a(I26
I53
tp7172
a(I27
I53
tp7173
a(I26
I54
tp7174
a(I27
I54
tp7175
a(I26
I55
tp7176
a(I27
I55
tp7177
a(I26
I56
tp7178
a(I27
I56
tp7179
a(I26
I57
tp7180
a(I27
I57
tp7181
a(I26
I58
tp7182
a(I27
I58
tp7183
a(I26
I59
tp7184
a(I27
I59
tp7185
a(I26
I60
tp7186
a(I27
I60
tp7187
a(I26
I61
tp7188
a(I27
I61
tp7189
a(I26
I62
tp7190
a(I27
I62
tp7191
a(I26
I63
tp7192
a(I27
I63
tp7193
a(I26
I64
tp7194
a(I27
I64
tp7195
a(I26
I65
tp7196
a(I27
I65
tp7197
a(I26
I66
tp7198
a(I27
I66
tp7199
a(I26
I67
tp7200
a(I27
I67
tp7201
a(I26
I68
tp7202
a(I27
I68
tp7203
a(I26
I69
tp7204
a(I27
I69
tp7205
a.